
software.elf:     file format elf32-littleriscv

SYMBOL TABLE:
40000000 l    d  .text	00000000 .text
40094310 l    d  .rodata	00000000 .rodata
4031dd30 l    d  .data	00000000 .data
4031e200 l    d  .bss	00000000 .bss
00000000 l    d  .debug_info	00000000 .debug_info
00000000 l    d  .debug_abbrev	00000000 .debug_abbrev
00000000 l    d  .debug_loc	00000000 .debug_loc
00000000 l    d  .debug_aranges	00000000 .debug_aranges
00000000 l    d  .debug_ranges	00000000 .debug_ranges
00000000 l    d  .debug_line	00000000 .debug_line
00000000 l    d  .debug_str	00000000 .debug_str
00000000 l    d  .comment	00000000 .comment
00000000 l    d  .riscv.attributes	00000000 .riscv.attributes
00000000 l    d  .debug_frame	00000000 .debug_frame
00000000 l    d  .debug_macro	00000000 .debug_macro
00000000 l    df *ABS*	00000000 src/crt0-vexriscv.o
40088de0 l       .text	00000000 crt_init
40088e54 l       .text	00000000 infinit_loop
00000000 l    df *ABS*	00000000 base.c
00000000 l       *ABS*	00000000 regnum_x0
00000001 l       *ABS*	00000000 regnum_x1
00000002 l       *ABS*	00000000 regnum_x2
00000003 l       *ABS*	00000000 regnum_x3
00000004 l       *ABS*	00000000 regnum_x4
00000005 l       *ABS*	00000000 regnum_x5
00000006 l       *ABS*	00000000 regnum_x6
00000007 l       *ABS*	00000000 regnum_x7
00000008 l       *ABS*	00000000 regnum_x8
00000009 l       *ABS*	00000000 regnum_x9
0000000a l       *ABS*	00000000 regnum_x10
0000000b l       *ABS*	00000000 regnum_x11
0000000c l       *ABS*	00000000 regnum_x12
0000000d l       *ABS*	00000000 regnum_x13
0000000e l       *ABS*	00000000 regnum_x14
0000000f l       *ABS*	00000000 regnum_x15
00000010 l       *ABS*	00000000 regnum_x16
00000011 l       *ABS*	00000000 regnum_x17
00000012 l       *ABS*	00000000 regnum_x18
00000013 l       *ABS*	00000000 regnum_x19
00000014 l       *ABS*	00000000 regnum_x20
00000015 l       *ABS*	00000000 regnum_x21
00000016 l       *ABS*	00000000 regnum_x22
00000017 l       *ABS*	00000000 regnum_x23
00000018 l       *ABS*	00000000 regnum_x24
00000019 l       *ABS*	00000000 regnum_x25
0000001a l       *ABS*	00000000 regnum_x26
0000001b l       *ABS*	00000000 regnum_x27
0000001c l       *ABS*	00000000 regnum_x28
0000001d l       *ABS*	00000000 regnum_x29
0000001e l       *ABS*	00000000 regnum_x30
0000001f l       *ABS*	00000000 regnum_x31
00000000 l       *ABS*	00000000 regnum_zero
00000001 l       *ABS*	00000000 regnum_ra
00000002 l       *ABS*	00000000 regnum_sp
00000003 l       *ABS*	00000000 regnum_gp
00000004 l       *ABS*	00000000 regnum_tp
00000005 l       *ABS*	00000000 regnum_t0
00000006 l       *ABS*	00000000 regnum_t1
00000007 l       *ABS*	00000000 regnum_t2
00000008 l       *ABS*	00000000 regnum_s0
00000009 l       *ABS*	00000000 regnum_s1
0000000a l       *ABS*	00000000 regnum_a0
0000000b l       *ABS*	00000000 regnum_a1
0000000c l       *ABS*	00000000 regnum_a2
0000000d l       *ABS*	00000000 regnum_a3
0000000e l       *ABS*	00000000 regnum_a4
0000000f l       *ABS*	00000000 regnum_a5
00000010 l       *ABS*	00000000 regnum_a6
00000011 l       *ABS*	00000000 regnum_a7
00000012 l       *ABS*	00000000 regnum_s2
00000013 l       *ABS*	00000000 regnum_s3
00000014 l       *ABS*	00000000 regnum_s4
00000015 l       *ABS*	00000000 regnum_s5
00000016 l       *ABS*	00000000 regnum_s6
00000017 l       *ABS*	00000000 regnum_s7
00000018 l       *ABS*	00000000 regnum_s8
00000019 l       *ABS*	00000000 regnum_s9
0000001a l       *ABS*	00000000 regnum_s10
0000001b l       *ABS*	00000000 regnum_s11
0000001c l       *ABS*	00000000 regnum_t3
0000001d l       *ABS*	00000000 regnum_t4
0000001e l       *ABS*	00000000 regnum_t5
0000001f l       *ABS*	00000000 regnum_t6
0000000b l       *ABS*	00000000 CUSTOM0
0000002b l       *ABS*	00000000 CUSTOM1
00000000 l    df *ABS*	00000000 benchmarks.c
400000fc l     F .text	000000b0 do_increment_mem
400001ac l     F .text	000000b0 do_stores
4000025c l     F .text	000000a0 do_loads_strided
400002fc l     F .text	000000b0 do_loads_cached
400003ac l     F .text	000000a0 do_loads
4031dddc l     O .data	00000078 MENU
00000000 l    df *ABS*	00000000 donut.c
4031e284 l     O .bss	000006e0 b
4031e964 l     O .bss	000006e0 z
00000000 l    df *ABS*	00000000 main.c
4031de54 l     O .data	000000a8 MENU
00000000 l    df *ABS*	00000000 models.c
4031defc l     O .data	00000048 MENU
00000000 l    df *ABS*	00000000 stdio.c
00000000 l    df *ABS*	00000000 embench.c
4031df44 l     O .data	00000038 MENU
00000000 l    df *ABS*	00000000 fft4g.c
4000091c l     F .text	00000178 makect.part.0
40000e84 l     F .text	000001dc makewt.part.0
00000000 l    df *ABS*	00000000 functional_cfu_tests.cc
00000000 l       *ABS*	00000000 regnum_x0
00000001 l       *ABS*	00000000 regnum_x1
00000002 l       *ABS*	00000000 regnum_x2
00000003 l       *ABS*	00000000 regnum_x3
00000004 l       *ABS*	00000000 regnum_x4
00000005 l       *ABS*	00000000 regnum_x5
00000006 l       *ABS*	00000000 regnum_x6
00000007 l       *ABS*	00000000 regnum_x7
00000008 l       *ABS*	00000000 regnum_x8
00000009 l       *ABS*	00000000 regnum_x9
0000000a l       *ABS*	00000000 regnum_x10
0000000b l       *ABS*	00000000 regnum_x11
0000000c l       *ABS*	00000000 regnum_x12
0000000d l       *ABS*	00000000 regnum_x13
0000000e l       *ABS*	00000000 regnum_x14
0000000f l       *ABS*	00000000 regnum_x15
00000010 l       *ABS*	00000000 regnum_x16
00000011 l       *ABS*	00000000 regnum_x17
00000012 l       *ABS*	00000000 regnum_x18
00000013 l       *ABS*	00000000 regnum_x19
00000014 l       *ABS*	00000000 regnum_x20
00000015 l       *ABS*	00000000 regnum_x21
00000016 l       *ABS*	00000000 regnum_x22
00000017 l       *ABS*	00000000 regnum_x23
00000018 l       *ABS*	00000000 regnum_x24
00000019 l       *ABS*	00000000 regnum_x25
0000001a l       *ABS*	00000000 regnum_x26
0000001b l       *ABS*	00000000 regnum_x27
0000001c l       *ABS*	00000000 regnum_x28
0000001d l       *ABS*	00000000 regnum_x29
0000001e l       *ABS*	00000000 regnum_x30
0000001f l       *ABS*	00000000 regnum_x31
00000000 l       *ABS*	00000000 regnum_zero
00000001 l       *ABS*	00000000 regnum_ra
00000002 l       *ABS*	00000000 regnum_sp
00000003 l       *ABS*	00000000 regnum_gp
00000004 l       *ABS*	00000000 regnum_tp
00000005 l       *ABS*	00000000 regnum_t0
00000006 l       *ABS*	00000000 regnum_t1
00000007 l       *ABS*	00000000 regnum_t2
00000008 l       *ABS*	00000000 regnum_s0
00000009 l       *ABS*	00000000 regnum_s1
0000000a l       *ABS*	00000000 regnum_a0
0000000b l       *ABS*	00000000 regnum_a1
0000000c l       *ABS*	00000000 regnum_a2
0000000d l       *ABS*	00000000 regnum_a3
0000000e l       *ABS*	00000000 regnum_a4
0000000f l       *ABS*	00000000 regnum_a5
00000010 l       *ABS*	00000000 regnum_a6
00000011 l       *ABS*	00000000 regnum_a7
00000012 l       *ABS*	00000000 regnum_s2
00000013 l       *ABS*	00000000 regnum_s3
00000014 l       *ABS*	00000000 regnum_s4
00000015 l       *ABS*	00000000 regnum_s5
00000016 l       *ABS*	00000000 regnum_s6
00000017 l       *ABS*	00000000 regnum_s7
00000018 l       *ABS*	00000000 regnum_s8
00000019 l       *ABS*	00000000 regnum_s9
0000001a l       *ABS*	00000000 regnum_s10
0000001b l       *ABS*	00000000 regnum_s11
0000001c l       *ABS*	00000000 regnum_t3
0000001d l       *ABS*	00000000 regnum_t4
0000001e l       *ABS*	00000000 regnum_t5
0000001f l       *ABS*	00000000 regnum_t6
0000000b l       *ABS*	00000000 CUSTOM0
0000002b l       *ABS*	00000000 CUSTOM1
400045dc l     F .text	00000158 _ZN12_GLOBAL__N_120do_interactive_testsEv
40004734 l     F .text	00000098 _ZN12_GLOBAL__N_114do_fixed_testsEv
400047cc l     F .text	000001a0 _ZN12_GLOBAL__N_116do_compare_testsEv
4031df7c l     O .data	00000008 _ZN12_GLOBAL__N_14MENUE
00000000 l    df *ABS*	00000000 menu.cc
00000000 l    df *ABS*	00000000 ds_cnn.cc
40004ae8 l     F .text	000002e0 _ZL21do_predict_all_labelsv
40094a34 l     O .rodata	001deecc _ZL16ds_cnn_stream_fe
4031dfd4 l     O .data	00000008 _ZL4MENU
00000000 l    df *ABS*	00000000 my_cycles.cc
00000000 l    df *ABS*	00000000 pdti8.cc
40004e20 l     F .text	00000040 _ZL17do_classify_zerosv
40004e60 l     F .text	00000054 _ZL21do_classify_no_personv
40004eb4 l     F .text	00000054 _ZL18do_classify_personv
40004f08 l     F .text	0000014c _ZL15do_golden_testsv
402c1c58 l     O .rodata	00049618 _ZL11model_pdti8
4031e010 l     O .data	00000008 _ZL4MENU
00000000 l    df *ABS*	00000000 perf.cc
40005084 l     F .text	0000004c _ZL12do_perf_showv
400050d0 l     F .text	00000130 _ZL12do_perf_zerov
40005200 l     F .text	00000020 _ZL13do_perf_set_1v
40005220 l     F .text	0000001c _ZL13do_perf_set_0v
4000523c l     F .text	00000120 _ZL14do_perf_enablev
4000535c l     F .text	00000108 _ZL13do_perf_pausev
400055a8 l     F .text	0000019c _ZL15do_perf_measurev
4031e208 l     O .bss	00000004 _ZL11counter_num
4031e07c l     O .data	00000008 _ZL4MENU
00000000 l    df *ABS*	00000000 murmurhash.cc
00000000 l    df *ABS*	00000000 util_tests.cc
40005b14 l     F .text	00000148 _ZN12_GLOBAL__N_115do_murmur_testsEv
40005c5c l     F .text	00000300 _ZN12_GLOBAL__N_16do_fpuEv
4031e114 l     O .data	00000008 _ZN12_GLOBAL__N_14MENUE
00000000 l    df *ABS*	00000000 proj_menu.cc
00000000 l       *ABS*	00000000 regnum_x0
00000001 l       *ABS*	00000000 regnum_x1
00000002 l       *ABS*	00000000 regnum_x2
00000003 l       *ABS*	00000000 regnum_x3
00000004 l       *ABS*	00000000 regnum_x4
00000005 l       *ABS*	00000000 regnum_x5
00000006 l       *ABS*	00000000 regnum_x6
00000007 l       *ABS*	00000000 regnum_x7
00000008 l       *ABS*	00000000 regnum_x8
00000009 l       *ABS*	00000000 regnum_x9
0000000a l       *ABS*	00000000 regnum_x10
0000000b l       *ABS*	00000000 regnum_x11
0000000c l       *ABS*	00000000 regnum_x12
0000000d l       *ABS*	00000000 regnum_x13
0000000e l       *ABS*	00000000 regnum_x14
0000000f l       *ABS*	00000000 regnum_x15
00000010 l       *ABS*	00000000 regnum_x16
00000011 l       *ABS*	00000000 regnum_x17
00000012 l       *ABS*	00000000 regnum_x18
00000013 l       *ABS*	00000000 regnum_x19
00000014 l       *ABS*	00000000 regnum_x20
00000015 l       *ABS*	00000000 regnum_x21
00000016 l       *ABS*	00000000 regnum_x22
00000017 l       *ABS*	00000000 regnum_x23
00000018 l       *ABS*	00000000 regnum_x24
00000019 l       *ABS*	00000000 regnum_x25
0000001a l       *ABS*	00000000 regnum_x26
0000001b l       *ABS*	00000000 regnum_x27
0000001c l       *ABS*	00000000 regnum_x28
0000001d l       *ABS*	00000000 regnum_x29
0000001e l       *ABS*	00000000 regnum_x30
0000001f l       *ABS*	00000000 regnum_x31
00000000 l       *ABS*	00000000 regnum_zero
00000001 l       *ABS*	00000000 regnum_ra
00000002 l       *ABS*	00000000 regnum_sp
00000003 l       *ABS*	00000000 regnum_gp
00000004 l       *ABS*	00000000 regnum_tp
00000005 l       *ABS*	00000000 regnum_t0
00000006 l       *ABS*	00000000 regnum_t1
00000007 l       *ABS*	00000000 regnum_t2
00000008 l       *ABS*	00000000 regnum_s0
00000009 l       *ABS*	00000000 regnum_s1
0000000a l       *ABS*	00000000 regnum_a0
0000000b l       *ABS*	00000000 regnum_a1
0000000c l       *ABS*	00000000 regnum_a2
0000000d l       *ABS*	00000000 regnum_a3
0000000e l       *ABS*	00000000 regnum_a4
0000000f l       *ABS*	00000000 regnum_a5
00000010 l       *ABS*	00000000 regnum_a6
00000011 l       *ABS*	00000000 regnum_a7
00000012 l       *ABS*	00000000 regnum_s2
00000013 l       *ABS*	00000000 regnum_s3
00000014 l       *ABS*	00000000 regnum_s4
00000015 l       *ABS*	00000000 regnum_s5
00000016 l       *ABS*	00000000 regnum_s6
00000017 l       *ABS*	00000000 regnum_s7
00000018 l       *ABS*	00000000 regnum_s8
00000019 l       *ABS*	00000000 regnum_s9
0000001a l       *ABS*	00000000 regnum_s10
0000001b l       *ABS*	00000000 regnum_s11
0000001c l       *ABS*	00000000 regnum_t3
0000001d l       *ABS*	00000000 regnum_t4
0000001e l       *ABS*	00000000 regnum_t5
0000001f l       *ABS*	00000000 regnum_t6
0000000b l       *ABS*	00000000 CUSTOM0
0000002b l       *ABS*	00000000 CUSTOM1
40005f68 l     F .text	0000000c _ZN12_GLOBAL__N_114do_hello_worldEv
40005f74 l     F .text	000000cc _ZN12_GLOBAL__N_115do_grid_cfu_op0Ev
40006040 l     F .text	00000108 _ZN12_GLOBAL__N_119do_exercise_cfu_op0Ev
4031e15c l     O .data	00000008 _ZN12_GLOBAL__N_14MENUE
00000000 l    df *ABS*	00000000 proj_tflite.cc
00000000 l    df *ABS*	00000000 software_cfu.cc
00000000 l    df *ABS*	00000000 error_reporter.cc
00000000 l    df *ABS*	00000000 flatbuffer_conversions.cc
00000000 l    df *ABS*	00000000 op_resolver.cc
00000000 l    df *ABS*	00000000 common.cc
4030c740 l     O .rodata	0000004c CSWTCH.10
00000000 l    df *ABS*	00000000 mfcc_dct.cc
00000000 l    df *ABS*	00000000 mfcc_function.cc
00000000 l    df *ABS*	00000000 mfcc_mel_filterbank.cc
00000000 l    df *ABS*	00000000 portable_tensor_utils.cc
00000000 l    df *ABS*	00000000 quantization_util.cc
00000000 l    df *ABS*	00000000 portable_tensor_utils.cc
00000000 l    df *ABS*	00000000 spectrogram.cc
00000000 l    df *ABS*	00000000 tensor_utils.cc
00000000 l    df *ABS*	00000000 kernel_util.cc
4030c9cc l     O .rodata	00000044 CSWTCH.36
00000000 l    df *ABS*	00000000 all_ops_resolver.cc
4000d1c4 l     F .text	000001cc _ZN6tflite22MicroMutableOpResolverILj128EE10AddBuiltinENS_15BuiltinOperatorERK18TfLiteRegistrationPF12TfLiteStatusPKNS_8OperatorEPNS_13ErrorReporterEPNS_20BuiltinDataAllocatorEPPvE.isra.0
00000000 l    df *ABS*	00000000 single_arena_buffer_allocator.cc
00000000 l    df *ABS*	00000000 debug_log.cc
00000000 l    df *ABS*	00000000 fake_micro_context.cc
4031f2e8 l     O .bss	00000100 _ZN6tflite12_GLOBAL__N_1L18dummy_tensor_arenaE
00000000 l    df *ABS*	00000000 flatbuffer_utils.cc
00000000 l    df *ABS*	00000000 activations.cc
400118c8 l     F .text	0000000c _ZN6tflite12_GLOBAL__N_18ReluInitEP13TfLiteContextPKcj
400118d4 l     F .text	0000000c _ZN6tflite12_GLOBAL__N_19Relu6InitEP13TfLiteContextPKcj
400118e0 l     F .text	00000138 _ZN6tflite12_GLOBAL__N_18ReluEvalEP13TfLiteContextP10TfLiteNode
40011a18 l     F .text	00000148 _ZN6tflite12_GLOBAL__N_19Relu6EvalEP13TfLiteContextP10TfLiteNode
00000000 l    df *ABS*	00000000 activations_common.cc
00000000 l    df *ABS*	00000000 add.cc
00000000 l    df *ABS*	00000000 add_common.cc
00000000 l    df *ABS*	00000000 add_n.cc
40015200 l     F .text	00000464 _ZN6tflite12_GLOBAL__N_17PrepareEP13TfLiteContextP10TfLiteNode
40015664 l     F .text	000005d4 _ZN6tflite12_GLOBAL__N_14EvalEP13TfLiteContextP10TfLiteNode
00000000 l    df *ABS*	00000000 arg_min_max.cc
40015c78 l     F .text	000009dc _ZN6tflite12_GLOBAL__N_14EvalEP13TfLiteContextP10TfLiteNodeb
40016654 l     F .text	00000008 _ZN6tflite12_GLOBAL__N_110ArgMaxEvalEP13TfLiteContextP10TfLiteNode
4001665c l     F .text	00000008 _ZN6tflite12_GLOBAL__N_110ArgMinEvalEP13TfLiteContextP10TfLiteNode
00000000 l    df *ABS*	00000000 assign_variable.cc
400166dc l     F .text	0000008c _ZN6tflite12_GLOBAL__N_14EvalEP13TfLiteContextP10TfLiteNode
40016768 l     F .text	00000264 _ZN6tflite12_GLOBAL__N_17PrepareEP13TfLiteContextP10TfLiteNode
00000000 l    df *ABS*	00000000 audio_spectrogram.cc
4031dd30 l     O .data	00000024 _ZZN6tflite3ops5micro26Register_AUDIO_SPECTROGRAMEvE1r
00000000 l    df *ABS*	00000000 batch_to_space_nd.cc
40017d08 l     F .text	00000264 _ZN6tflite12_GLOBAL__N_17PrepareEP13TfLiteContextP10TfLiteNode
40017f6c l     F .text	000005ec _ZN6tflite12_GLOBAL__N_14EvalEP13TfLiteContextP10TfLiteNode
00000000 l    df *ABS*	00000000 broadcast_args.cc
40018598 l     F .text	00000280 _ZN6tflite12_GLOBAL__N_120BroadcastArgsPrepareEP13TfLiteContextP10TfLiteNode
40018adc l     F .text	00000128 _ZN6tflite12_GLOBAL__N_117BroadcastArgsEvalEP13TfLiteContextP10TfLiteNode
00000000 l    df *ABS*	00000000 broadcast_to.cc
40018c04 l     F .text	00000408 _ZN6tflite12_GLOBAL__N_118BroadcastToPrepareEP13TfLiteContextP10TfLiteNode
400192a0 l     F .text	000002d8 _ZN6tflite12_GLOBAL__N_115BroadcastToEvalEP13TfLiteContextP10TfLiteNode
00000000 l    df *ABS*	00000000 call_once.cc
40019578 l     F .text	0000000c _ZN6tflite12_GLOBAL__N_14InitEP13TfLiteContextPKcj
40019584 l     F .text	0000010c _ZN6tflite12_GLOBAL__N_17PrepareEP13TfLiteContextP10TfLiteNode
40019690 l     F .text	00000060 _ZN6tflite12_GLOBAL__N_14EvalEP13TfLiteContextP10TfLiteNode
00000000 l    df *ABS*	00000000 cast.cc
40019734 l     F .text	00000188 _ZN6tflite12_GLOBAL__N_17PrepareEP13TfLiteContextP10TfLiteNode
400198bc l     F .text	00000710 _ZN6tflite12_GLOBAL__N_14EvalEP13TfLiteContextP10TfLiteNode
00000000 l    df *ABS*	00000000 ceil.cc
00000000 l    df *ABS*	00000000 circular_buffer.cc
4031f3e8 l     O .bss	00000024 _ZZN6tflite24Register_CIRCULAR_BUFFEREvE1r
4031e210 l     O .bss	00000008 _ZGVZN6tflite24Register_CIRCULAR_BUFFEREvE1r
00000000 l    df *ABS*	00000000 circular_buffer_common.cc
4031e218 l     O .bss	00000004 _ZZN6tflite21CircularBufferPrepareEP13TfLiteContextP10TfLiteNodeE16cb_prepare_count
00000000 l    df *ABS*	00000000 comparisons.cc
4001ab0c l     F .text	00001f98 _ZN6tflite3ops5micro11comparisons12_GLOBAL__N_111GreaterEvalEP13TfLiteContextP10TfLiteNode
4001caa4 l     F .text	00002018 _ZN6tflite3ops5micro11comparisons12_GLOBAL__N_116GreaterEqualEvalEP13TfLiteContextP10TfLiteNode
4001eabc l     F .text	00001f98 _ZN6tflite3ops5micro11comparisons12_GLOBAL__N_18LessEvalEP13TfLiteContextP10TfLiteNode
40020a54 l     F .text	00002014 _ZN6tflite3ops5micro11comparisons12_GLOBAL__N_113LessEqualEvalEP13TfLiteContextP10TfLiteNode
40022a68 l     F .text	00002874 _ZN6tflite3ops5micro11comparisons12_GLOBAL__N_112NotEqualEvalEP13TfLiteContextP10TfLiteNode
400252dc l     F .text	00002578 _ZN6tflite3ops5micro11comparisons12_GLOBAL__N_19EqualEvalEP13TfLiteContextP10TfLiteNode
00000000 l    df *ABS*	00000000 concatenation.cc
00000000 l    df *ABS*	00000000 conv.cc
400294a8 l     F .text	0000000c _ZN6tflite12_GLOBAL__N_14InitEP13TfLiteContextPKcj
400294b4 l     F .text	00001be4 _ZN6tflite12_GLOBAL__N_14EvalEP13TfLiteContextP10TfLiteNode
00000000 l    df *ABS*	00000000 conv_common.cc
00000000 l    df *ABS*	00000000 conv_test.cc
4031dd54 l     O .data	00000014 _ZN6tflite7testing12_GLOBAL__N_1L11kInputShapeE
4031dd68 l     O .data	00000014 _ZN6tflite7testing12_GLOBAL__N_1L12kFilterShapeE
4031dd7c l     O .data	00000014 _ZN6tflite7testing12_GLOBAL__N_1L12kOutputShapeE
4031dd90 l     O .data	00000018 _ZN6tflite7testing12_GLOBAL__N_1L18common_conv_paramsE
403145ac l     O .rodata	00000040 _ZN6tflite7testing12_GLOBAL__N_1L10kInputDataE
403145ec l     O .rodata	00000030 _ZN6tflite7testing12_GLOBAL__N_1L11kFilterDataE
4031461c l     O .rodata	00000030 _ZN6tflite7testing12_GLOBAL__N_1L11kGoldenDataE
4031464c l     O .rodata	0000000c _ZN6tflite7testing12_GLOBAL__N_1L9kBiasDataE
4031e1b4 l     O .data	00000008 _ZN6tflite7testing12_GLOBAL__N_1L10kBiasShapeE
00000000 l    df *ABS*	00000000 conv_test_common.cc
400313dc l     F .text	0000010c _ZN6tflite7testing10InvokeConvIsEE12TfLiteStatusP12TfLiteTensoriiP16TfLiteConvParams18TfLiteRegistrationPT_.isra.0
400314e8 l     F .text	0000010c _ZN6tflite7testing10InvokeConvIfEE12TfLiteStatusP12TfLiteTensoriiP16TfLiteConvParams18TfLiteRegistrationPT_.isra.0
00000000 l    df *ABS*	00000000 cumsum.cc
40032e94 l     F .text	0000048c _ZN6tflite12_GLOBAL__N_17PrepareEP13TfLiteContextP10TfLiteNode
40033320 l     F .text	00000e30 _ZN6tflite12_GLOBAL__N_14EvalEP13TfLiteContextP10TfLiteNode
00000000 l    df *ABS*	00000000 depth_to_space.cc
40034190 l     F .text	0000032c _ZN6tflite12_GLOBAL__N_17PrepareEP13TfLiteContextP10TfLiteNode
400344bc l     F .text	00000544 _ZN6tflite12_GLOBAL__N_14EvalEP13TfLiteContextP10TfLiteNode
00000000 l    df *ABS*	00000000 depthwise_conv.cc
40034a40 l     F .text	0000000c _ZN6tflite12_GLOBAL__N_14InitEP13TfLiteContextPKcj
40034a4c l     F .text	00000fd8 _ZN6tflite12_GLOBAL__N_14EvalEP13TfLiteContextP10TfLiteNode
00000000 l    df *ABS*	00000000 depthwise_conv_common.cc
00000000 l    df *ABS*	00000000 depthwise_conv_test.cc
40036368 l     F .text	0000022c _ZN6tflite7testing12_GLOBAL__N_128ValidateDepthwiseConvGoldensIaEE12TfLiteStatusPKT_iP25TfLiteDepthwiseConvParamsfiP12TfLiteTensor.constprop.0
40036594 l     F .text	00000584 _ZN6tflite7testing12_GLOBAL__N_128ValidateDepthwiseConvGoldensIaEE12TfLiteStatusPKT_iP25TfLiteDepthwiseConvParamsfiP12TfLiteTensor.constprop.1
40036b18 l     F .text	00000234 _ZN6tflite7testing12_GLOBAL__N_128ValidateDepthwiseConvGoldensIaEE12TfLiteStatusPKT_iP25TfLiteDepthwiseConvParamsfiP12TfLiteTensor.constprop.2
40036d4c l     F .text	00000364 _ZN6tflite7testing12_GLOBAL__N_122TestDepthwiseConvFloatEPiPKfS2_S4_S2_S4_S4_S2_P25TfLiteDepthwiseConvParamsPf
400370b0 l     F .text	00000418 _ZN6tflite7testing12_GLOBAL__N_136TestDepthwiseConvQuantizedPerChannelEPiPKfPafiS2_S4_S5_S2_S4_PlS2_S4_S5_S5_fiP25TfLiteDepthwiseConvParams10TfLiteType.constprop.0
00000000 l    df *ABS*	00000000 dequantize.cc
00000000 l    df *ABS*	00000000 dequantize_common.cc
00000000 l    df *ABS*	00000000 detection_postprocess.cc
4003bedc l     F .text	000003d0 _ZN6tflite12_GLOBAL__N_17PrepareEP13TfLiteContextP10TfLiteNode
4003c2ac l     F .text	00000244 _ZSt13__adjust_heapIPiiiN9__gnu_cxx5__ops15_Iter_comp_iterIZN6tflite12_GLOBAL__N_124DecreasingPartialArgSortEPKfiiS0_EUliiE_EEEvT_T0_SB_T1_T2_
4003c4f0 l     F .text	000001a0 _ZN6tflite12_GLOBAL__N_124DecreasingPartialArgSortEPKfiiPi
4003c690 l     F .text	0000039c _ZN6tflite12_GLOBAL__N_19MergeSortIZNS0_17DecreasingArgSortEPKfiPiS4_EUliiE_EEvS4_S4_iT_
4003ca2c l     F .text	000006c4 _ZN6tflite12_GLOBAL__N_134NonMaxSuppressionSingleClassHelperEP13TfLiteContextP10TfLiteNodePNS0_6OpDataEPKfPiS9_i
4003d0f0 l     F .text	00000c70 _ZN6tflite12_GLOBAL__N_14EvalEP13TfLiteContextP10TfLiteNode
4003e134 l     F .text	00001300 _ZN6tflite12_GLOBAL__N_14InitEP13TfLiteContextPKcj
4031f40c l     O .bss	00000024 _ZZN6tflite30Register_DETECTION_POSTPROCESSEvE1r
4031e220 l     O .bss	00000008 _ZGVZN6tflite30Register_DETECTION_POSTPROCESSEvE1r
00000000 l    df *ABS*	00000000 div.cc
4003f4b4 l     F .text	0000000c _ZN6tflite12_GLOBAL__N_14InitEP13TfLiteContextPKcj
4003f4c0 l     F .text	0000025c _ZN6tflite12_GLOBAL__N_17PrepareEP13TfLiteContextP10TfLiteNode
40041688 l     F .text	0000011c _ZN6tflite12_GLOBAL__N_14EvalEP13TfLiteContextP10TfLiteNode
4003fe38 l     F .text	00000d0c _ZN6tflite12_GLOBAL__N_113EvalQuantizedEP13TfLiteContextP10TfLiteNodeP15TfLiteDivParamsPKNS0_9OpDataDivEPK16TfLiteEvalTensorSC_PSA_.constprop.0
40040f38 l     F .text	00000750 _ZN6tflite12_GLOBAL__N_17EvalDivEP13TfLiteContextP10TfLiteNodeP15TfLiteDivParamsPKNS0_9OpDataDivEPK16TfLiteEvalTensorSC_PSA_.constprop.0
00000000 l    df *ABS*	00000000 elementwise.cc
400417a4 l     F .text	0000000c _ZN6tflite3ops5micro11elementwise12_GLOBAL__N_123ElementWiseAbsRsqrtInitEP13TfLiteContextPKcj
400417b0 l     F .text	0000020c _ZN6tflite3ops5micro11elementwise12_GLOBAL__N_114GenericPrepareIXadL_ZNS3_22IsNumericSupportedTypeE10TfLiteTypeEEEE12TfLiteStatusP13TfLiteContextP10TfLiteNode
400419bc l     F .text	0000020c _ZN6tflite3ops5micro11elementwise12_GLOBAL__N_114GenericPrepareIXadL_ZNS3_22IsLogicalSupportedTypeE10TfLiteTypeEEEE12TfLiteStatusP13TfLiteContextP10TfLiteNode
40041bc8 l     F .text	00000498 _ZN6tflite3ops5micro11elementwise12_GLOBAL__N_115PrepareAbsRsqrtIXadL_ZNS3_18IsAbsSupportedTypeE10TfLiteTypeEELi0EEE12TfLiteStatusP13TfLiteContextP10TfLiteNode
40042060 l     F .text	000004b8 _ZN6tflite3ops5micro11elementwise12_GLOBAL__N_115PrepareAbsRsqrtIXadL_ZNS3_20IsRsqrtSupportedTypeE10TfLiteTypeEELi1EEE12TfLiteStatusP13TfLiteContextP10TfLiteNode
40042518 l     F .text	00000110 _ZN6tflite3ops5micro11elementwise12_GLOBAL__N_110SquareEvalEP13TfLiteContextP10TfLiteNode
40042628 l     F .text	000000fc _ZN6tflite3ops5micro11elementwise12_GLOBAL__N_114LogicalNotEvalEP13TfLiteContextP10TfLiteNode
40042724 l     F .text	0000010c _ZN6tflite3ops5micro11elementwise12_GLOBAL__N_18SqrtEvalEP13TfLiteContextP10TfLiteNode
40042830 l     F .text	0000010c _ZN6tflite3ops5micro11elementwise12_GLOBAL__N_17LogEvalEP13TfLiteContextP10TfLiteNode
4004293c l     F .text	0000010c _ZN6tflite3ops5micro11elementwise12_GLOBAL__N_17CosEvalEP13TfLiteContextP10TfLiteNode
40042a48 l     F .text	0000010c _ZN6tflite3ops5micro11elementwise12_GLOBAL__N_17SinEvalEP13TfLiteContextP10TfLiteNode
40042b54 l     F .text	00000854 _ZN6tflite3ops5micro11elementwise12_GLOBAL__N_19RsqrtEvalEP13TfLiteContextP10TfLiteNode
400433a8 l     F .text	00000658 _ZN6tflite3ops5micro11elementwise12_GLOBAL__N_17AbsEvalEP13TfLiteContextP10TfLiteNode
00000000 l    df *ABS*	00000000 elu.cc
40043c08 l     F .text	0000000c _ZN6tflite12_GLOBAL__N_17EluInitEP13TfLiteContextPKcj
40043c14 l     F .text	000001fc _ZN6tflite12_GLOBAL__N_17EluEvalEP13TfLiteContextP10TfLiteNode
40043e10 l     F .text	00000308 _ZN6tflite12_GLOBAL__N_110EluPrepareEP13TfLiteContextP10TfLiteNode
00000000 l    df *ABS*	00000000 ethosu.cc
00000000 l    df *ABS*	00000000 exp.cc
40044170 l     F .text	00000310 _ZN6tflite12_GLOBAL__N_17PrepareEP13TfLiteContextP10TfLiteNode
40044480 l     F .text	00000130 _ZN6tflite12_GLOBAL__N_14EvalEP13TfLiteContextP10TfLiteNode
00000000 l    df *ABS*	00000000 expand_dims.cc
400445f0 l     F .text	0000019c _ZN6tflite12_GLOBAL__N_14EvalEP13TfLiteContextP10TfLiteNode
4004478c l     F .text	0000044c _ZN6tflite12_GLOBAL__N_17PrepareEP13TfLiteContextP10TfLiteNode
00000000 l    df *ABS*	00000000 fill.cc
40044c18 l     F .text	000003a8 _ZN6tflite12_GLOBAL__N_17PrepareEP13TfLiteContextP10TfLiteNode
40044fc0 l     F .text	000002c4 _ZN6tflite12_GLOBAL__N_14EvalEP13TfLiteContextP10TfLiteNode
00000000 l    df *ABS*	00000000 floor.cc
00000000 l    df *ABS*	00000000 floor_div.cc
40045448 l     F .text	00000008 _ZN6tflite12_GLOBAL__N_14InitEP13TfLiteContextPKcj
40045450 l     F .text	00000274 _ZN6tflite12_GLOBAL__N_17PrepareEP13TfLiteContextP10TfLiteNode
400456c4 l     F .text	000005f0 _ZN6tflite12_GLOBAL__N_14EvalEP13TfLiteContextP10TfLiteNode
00000000 l    df *ABS*	00000000 floor_mod.cc
40045cf8 l     F .text	00000008 _ZN6tflite12_GLOBAL__N_14InitEP13TfLiteContextPKcj
40045d00 l     F .text	00000274 _ZN6tflite12_GLOBAL__N_17PrepareEP13TfLiteContextP10TfLiteNode
40045f74 l     F .text	000005cc _ZN6tflite12_GLOBAL__N_14EvalEP13TfLiteContextP10TfLiteNode
00000000 l    df *ABS*	00000000 fully_connected.cc
40046584 l     F .text	0000000c _ZN6tflite12_GLOBAL__N_14InitEP13TfLiteContextPKcj
40046590 l     F .text	00000298 _ZN6tflite12_GLOBAL__N_17PrepareEP13TfLiteContextP10TfLiteNode
40046828 l     F .text	00000d68 _ZN6tflite12_GLOBAL__N_14EvalEP13TfLiteContextP10TfLiteNode
00000000 l    df *ABS*	00000000 fully_connected_common.cc
00000000 l    df *ABS*	00000000 gather.cc
4004776c l     F .text	00000454 _ZN6tflite12_GLOBAL__N_17PrepareEP13TfLiteContextP10TfLiteNode
40047bc0 l     F .text	00000498 _ZN6tflite12_GLOBAL__N_14EvalEP13TfLiteContextP10TfLiteNode
00000000 l    df *ABS*	00000000 gather_nd.cc
40048098 l     F .text	00000334 _ZN6tflite12_GLOBAL__N_17PrepareEP13TfLiteContextP10TfLiteNode
400483cc l     F .text	00000480 _ZN6tflite12_GLOBAL__N_14EvalEP13TfLiteContextP10TfLiteNode
00000000 l    df *ABS*	00000000 hard_swish.cc
4004888c l     F .text	0000000c _ZN6tflite12_GLOBAL__N_113HardSwishInitEP13TfLiteContextPKcj
40048898 l     F .text	0000047c _ZN6tflite12_GLOBAL__N_113HardSwishEvalEP13TfLiteContextP10TfLiteNode
00000000 l    df *ABS*	00000000 hard_swish_common.cc
00000000 l    df *ABS*	00000000 if.cc
40048fec l     F .text	0000000c _ZN6tflite12_GLOBAL__N_14InitEP13TfLiteContextPKcj
40048ff8 l     F .text	00000358 _ZN6tflite12_GLOBAL__N_17PrepareEP13TfLiteContextP10TfLiteNode
40049350 l     F .text	0000015c _ZN6tflite12_GLOBAL__N_14EvalEP13TfLiteContextP10TfLiteNode
00000000 l    df *ABS*	00000000 kernel_runner.cc
00000000 l    df *ABS*	00000000 kernel_util.cc
00000000 l    df *ABS*	00000000 l2_pool_2d.cc
4004a0ac l     F .text	0000043c _ZN6tflite12_GLOBAL__N_19L2PrepareEP13TfLiteContextP10TfLiteNode
4004a4e8 l     F .text	000004bc _ZN6tflite12_GLOBAL__N_16L2EvalEP13TfLiteContextP10TfLiteNode
00000000 l    df *ABS*	00000000 l2norm.cc
00000000 l    df *ABS*	00000000 leaky_relu.cc
00000000 l    df *ABS*	00000000 leaky_relu_common.cc
00000000 l    df *ABS*	00000000 log_softmax.cc
4004c114 l     F .text	00000360 _ZN6tflite12_GLOBAL__N_117LogSoftmaxPrepareEP13TfLiteContextP10TfLiteNode
4004d2cc l     F .text	00000734 _ZN6tflite12_GLOBAL__N_114LogSoftmaxEvalEP13TfLiteContextP10TfLiteNode
00000000 l    df *ABS*	00000000 logical.cc
4004da00 l     F .text	0000000c _ZN6tflite12_GLOBAL__N_113LogicalOrEvalEP13TfLiteContextP10TfLiteNode
4004da0c l     F .text	0000000c _ZN6tflite12_GLOBAL__N_114LogicalAndEvalEP13TfLiteContextP10TfLiteNode
00000000 l    df *ABS*	00000000 logical_common.cc
00000000 l    df *ABS*	00000000 logistic.cc
4004df8c l     F .text	0000000c _ZN6tflite12_GLOBAL__N_112LogisticInitEP13TfLiteContextPKcj
4004e304 l     F .text	000005c4 _ZN6tflite12_GLOBAL__N_112LogisticEvalEP13TfLiteContextP10TfLiteNode
40317018 l     O .rodata	00000200 _ZN6tfliteL20sigmoid_table_uint16E
00000000 l    df *ABS*	00000000 logistic_common.cc
00000000 l    df *ABS*	00000000 lstm_eval.cc
4004ec78 l     F .text	00000248 _ZN6tflite13lstm_internal22CalculateLstmGateFloatEPKfS2_S2_S2_S2_S2_S2_S2_S2_S2_iiiii21TfLiteFusedActivationPfbb.constprop.1
4004eec0 l     F .text	00000230 _ZN6tflite13lstm_internal22CalculateLstmGateFloatEPKfS2_S2_S2_S2_S2_S2_S2_S2_S2_iiiii21TfLiteFusedActivationPfbb.constprop.0
40317320 l     O .rodata	00000200 _ZN6tfliteL20sigmoid_table_uint16E
00000000 l    df *ABS*	00000000 maximum_minimum.cc
400522dc l     F .text	0000003c _ZN6tflite3ops5micro15maximum_minimum12_GLOBAL__N_19MaximumOp2opIfEET_S6_S6_
40052318 l     F .text	00000018 _ZN6tflite3ops5micro15maximum_minimum12_GLOBAL__N_19MaximumOp2opIaEET_S6_S6_
40052330 l     F .text	0000000c _ZN6tflite3ops5micro15maximum_minimum12_GLOBAL__N_19MaximumOp2opIlEET_S6_S6_
4005233c l     F .text	0000001c _ZN6tflite3ops5micro15maximum_minimum12_GLOBAL__N_19MaximumOp2opIxEET_S6_S6_
40052358 l     F .text	0000003c _ZN6tflite3ops5micro15maximum_minimum12_GLOBAL__N_19MinimumOp2opIfEET_S6_S6_
40052394 l     F .text	00000018 _ZN6tflite3ops5micro15maximum_minimum12_GLOBAL__N_19MinimumOp2opIaEET_S6_S6_
400523ac l     F .text	0000000c _ZN6tflite3ops5micro15maximum_minimum12_GLOBAL__N_19MinimumOp2opIlEET_S6_S6_
400523b8 l     F .text	0000001c _ZN6tflite3ops5micro15maximum_minimum12_GLOBAL__N_19MinimumOp2opIxEET_S6_S6_
400540cc l     F .text	00000260 _ZN6tflite3ops5micro15maximum_minimum4EvalILNS2_12_GLOBAL__N_110KernelTypeE0ENS4_9MaximumOpEEE12TfLiteStatusP13TfLiteContextP10TfLiteNode
40053e6c l     F .text	00000260 _ZN6tflite3ops5micro15maximum_minimum4EvalILNS2_12_GLOBAL__N_110KernelTypeE0ENS4_9MinimumOpEEE12TfLiteStatusP13TfLiteContextP10TfLiteNode
00000000 l    df *ABS*	00000000 mfcc.cc
4031dda8 l     O .data	00000024 _ZZN6tflite3ops5micro13Register_MFCCEvE1r
00000000 l    df *ABS*	00000000 micro_tensor_utils.cc
00000000 l    df *ABS*	00000000 mirror_pad.cc
40055138 l     F .text	0000000c _ZN6tflite12_GLOBAL__N_14InitEP13TfLiteContextPKcj
40055144 l     F .text	000001fc _ZN6tflite12_GLOBAL__N_17PrepareEP13TfLiteContextP10TfLiteNode
40055340 l     F .text	000000ec _ZN6tflite12_GLOBAL__N_112GetFlatIndexEiiPK16TfLiteEvalTensorPK14TfLiteIntArrayPiS7_i
4005542c l     F .text	00000218 _ZN6tflite12_GLOBAL__N_14EvalEP13TfLiteContextP10TfLiteNode
00000000 l    df *ABS*	00000000 mul.cc
00000000 l    df *ABS*	00000000 mul_common.cc
00000000 l    df *ABS*	00000000 neg.cc
400582a8 l     F .text	00000128 _ZN6tflite12_GLOBAL__N_14EvalEP13TfLiteContextP10TfLiteNode
00000000 l    df *ABS*	00000000 pack.cc
4005840c l     F .text	00000610 _ZN6tflite3ops5micro4pack12_GLOBAL__N_14EvalEP13TfLiteContextP10TfLiteNode
00000000 l    df *ABS*	00000000 pad.cc
40058a58 l     F .text	0000000c _ZN6tflite12_GLOBAL__N_14InitEP13TfLiteContextPKcj
400591b8 l     F .text	0000280c _ZN6tflite12_GLOBAL__N_14EvalEP13TfLiteContextP10TfLiteNode
00000000 l    df *ABS*	00000000 pooling.cc
4005ba4c l     F .text	0000000c _ZN6tflite12_GLOBAL__N_14InitEP13TfLiteContextPKcj
4005ba58 l     F .text	0000011c _ZN6tflite12_GLOBAL__N_111AverageEvalEP13TfLiteContextP10TfLiteNode
4005bb74 l     F .text	0000011c _ZN6tflite12_GLOBAL__N_17MaxEvalEP13TfLiteContextP10TfLiteNode
00000000 l    df *ABS*	00000000 pooling_common.cc
00000000 l    df *ABS*	00000000 prelu.cc
00000000 l    df *ABS*	00000000 prelu_common.cc
00000000 l    df *ABS*	00000000 quantize.cc
4005e068 l     F .text	0000000c _ZN6tflite12_GLOBAL__N_14InitEP13TfLiteContextPKcj
00000000 l    df *ABS*	00000000 quantize_common.cc
00000000 l    df *ABS*	00000000 read_variable.cc
4005f748 l     F .text	0000004c _ZN6tflite12_GLOBAL__N_17PrepareEP13TfLiteContextP10TfLiteNode
4005f794 l     F .text	0000008c _ZN6tflite12_GLOBAL__N_14EvalEP13TfLiteContextP10TfLiteNode
00000000 l    df *ABS*	00000000 reduce.cc
00000000 l    df *ABS*	00000000 reduce_common.cc
4005f95c l     F .text	00000628 _ZN6tflite18QuantizedMeanOrSumIaEE12TfLiteStatusP13TfLiteContextP10TfLiteNodePiS6_PlPNS_12OpDataReduceEb.isra.0
4005ff84 l     F .text	00000608 _ZN6tflite18QuantizedMeanOrSumIsEE12TfLiteStatusP13TfLiteContextP10TfLiteNodePiS6_PlPNS_12OpDataReduceEb.isra.0
00000000 l    df *ABS*	00000000 reshape.cc
00000000 l    df *ABS*	00000000 resize_bilinear.cc
40062cb4 l     F .text	00000274 _ZN6tflite12_GLOBAL__N_17PrepareEP13TfLiteContextP10TfLiteNode
400635dc l     F .text	000006c0 _ZN6tflite12_GLOBAL__N_14EvalEP13TfLiteContextP10TfLiteNode
00000000 l    df *ABS*	00000000 resize_nearest_neighbor.cc
00000000 l    df *ABS*	00000000 round.cc
00000000 l    df *ABS*	00000000 select.cc
00000000 l    df *ABS*	00000000 shape.cc
40067a48 l     F .text	000000c0 _ZN6tflite12_GLOBAL__N_14EvalEP13TfLiteContextP10TfLiteNode
40067b08 l     F .text	000000b8 _ZN6tflite12_GLOBAL__N_17PrepareEP13TfLiteContextP10TfLiteNode
00000000 l    df *ABS*	00000000 slice.cc
40067c00 l     F .text	000001b8 _ZN6tflite12_GLOBAL__N_17PrepareEP13TfLiteContextP10TfLiteNode
40067db8 l     F .text	00000b4c _ZN6tflite12_GLOBAL__N_14EvalEP13TfLiteContextP10TfLiteNode
00000000 l    df *ABS*	00000000 softmax.cc
40068988 l     F .text	00001104 _ZN6tflite12_GLOBAL__N_111SoftmaxEvalEP13TfLiteContextP10TfLiteNode
00000000 l    df *ABS*	00000000 softmax_common.cc
00000000 l    df *ABS*	00000000 space_to_batch_nd.cc
4006a7ec l     F .text	0000000c _ZN6tflite12_GLOBAL__N_14InitEP13TfLiteContextPKcj
4006a7f8 l     F .text	00000264 _ZN6tflite12_GLOBAL__N_17PrepareEP13TfLiteContextP10TfLiteNode
4006aa5c l     F .text	000006b0 _ZN6tflite12_GLOBAL__N_14EvalEP13TfLiteContextP10TfLiteNode
00000000 l    df *ABS*	00000000 space_to_depth.cc
4006b150 l     F .text	0000031c _ZN6tflite12_GLOBAL__N_17PrepareEP13TfLiteContextP10TfLiteNode
4006b46c l     F .text	00000534 _ZN6tflite12_GLOBAL__N_14EvalEP13TfLiteContextP10TfLiteNode
00000000 l    df *ABS*	00000000 split.cc
00000000 l    df *ABS*	00000000 split_v.cc
00000000 l    df *ABS*	00000000 squared_difference.cc
4006d148 l     F .text	0000000c _ZN6tflite12_GLOBAL__N_121SquaredDifferenceInitEP13TfLiteContextPKcj
4006d154 l     F .text	00000460 _ZN6tflite12_GLOBAL__N_124SquaredDifferencePrepareEP13TfLiteContextP10TfLiteNode
4006d5b4 l     F .text	000018bc _ZN6tflite12_GLOBAL__N_121SquaredDifferenceEvalEP13TfLiteContextP10TfLiteNode
00000000 l    df *ABS*	00000000 squeeze.cc
4006eeb4 l     F .text	00000148 _ZN6tflite12_GLOBAL__N_14EvalEP13TfLiteContextP10TfLiteNode
4006effc l     F .text	00000418 _ZN6tflite12_GLOBAL__N_17PrepareEP13TfLiteContextP10TfLiteNode
00000000 l    df *ABS*	00000000 strided_slice.cc
00000000 l    df *ABS*	00000000 sub.cc
00000000 l    df *ABS*	00000000 sub_common.cc
00000000 l    df *ABS*	00000000 svdf.cc
40077054 l     F .text	0000000c _ZN6tflite12_GLOBAL__N_14InitEP13TfLiteContextPKcj
40077060 l     F .text	000001f0 _ZN6tflite12_GLOBAL__N_14EvalEP13TfLiteContextP10TfLiteNode
00000000 l    df *ABS*	00000000 svdf_common.cc
00000000 l    df *ABS*	00000000 tanh.cc
40078f58 l     F .text	0000000c _ZN6tflite3ops5micro11activations12_GLOBAL__N_18TanhInitEP13TfLiteContextPKcj
40078f64 l     F .text	00000460 _ZN6tflite3ops5micro11activations12_GLOBAL__N_111TanhPrepareEP13TfLiteContextP10TfLiteNode
40319538 l     O .rodata	00000200 _ZN6tfliteL20sigmoid_table_uint16E
00000000 l    df *ABS*	00000000 transpose.cc
40079fb8 l     F .text	00000318 _ZN6tflite12_GLOBAL__N_17PrepareEP13TfLiteContextP10TfLiteNode
4007a5f0 l     F .text	00000648 _ZN6tflite12_GLOBAL__N_14EvalEP13TfLiteContextP10TfLiteNode
00000000 l    df *ABS*	00000000 transpose_conv.cc
4007ac38 l     F .text	0000000c _ZN6tflite12_GLOBAL__N_14InitEP13TfLiteContextPKcj
4007ac44 l     F .text	000008e4 _ZN6tflite12_GLOBAL__N_17PrepareEP13TfLiteContextP10TfLiteNode
4007b528 l     F .text	00001d00 _ZN6tflite12_GLOBAL__N_14EvalEP13TfLiteContextP10TfLiteNode
00000000 l    df *ABS*	00000000 unidirectional_sequence_lstm.cc
4007d26c l     F .text	0000000c _ZN6tflite12_GLOBAL__N_130UnidirectionalSequenceLstmInitEP13TfLiteContextPKcj
4007d278 l     F .text	000005a0 _ZN6tflite12_GLOBAL__N_130UnidirectionalSequenceLstmEvalEP13TfLiteContextP10TfLiteNode
4007d818 l     F .text	00000128 _ZN6tflite12_GLOBAL__N_138PrecomputeZeroPointTimesWeightWithBiasEP13TfLiteContextlPK12TfLiteTensorS5_PPl.part.0
4007d940 l     F .text	00000e5c _ZN6tflite12_GLOBAL__N_133PopulateQuantizedLstmParams8x8_16EP13TfLiteContextP10TfLiteNodePNS_20IntegerLstmParameterE.isra.0
4007e79c l     F .text	00002af4 _ZN6tflite12_GLOBAL__N_133UnidirectionalSequenceLstmPrepareEP13TfLiteContextP10TfLiteNode
00000000 l    df *ABS*	00000000 unpack.cc
400812d4 l     F .text	000004d0 _ZN6tflite3ops5micro6unpack12_GLOBAL__N_14EvalEP13TfLiteContextP10TfLiteNode
00000000 l    df *ABS*	00000000 var_handle.cc
400817e0 l     F .text	0000000c _ZN6tflite12_GLOBAL__N_14InitEP13TfLiteContextPKcj
400817ec l     F .text	00000030 _ZN6tflite12_GLOBAL__N_14EvalEP13TfLiteContextP10TfLiteNode
4008181c l     F .text	000000a8 _ZN6tflite12_GLOBAL__N_17PrepareEP13TfLiteContextP10TfLiteNode
00000000 l    df *ABS*	00000000 while.cc
40081908 l     F .text	0000000c _ZN6tflite12_GLOBAL__N_14InitEP13TfLiteContextPKcj
40081914 l     F .text	00000240 _ZN6tflite12_GLOBAL__N_17PrepareEP13TfLiteContextP10TfLiteNode
40081b54 l     F .text	000001a0 _ZN6tflite12_GLOBAL__N_14EvalEP13TfLiteContextP10TfLiteNode
00000000 l    df *ABS*	00000000 zeros_like.cc
40081d38 l     F .text	00000190 _ZN6tflite12_GLOBAL__N_17PrepareEP13TfLiteContextP10TfLiteNode
40081ec8 l     F .text	00000280 _ZN6tflite12_GLOBAL__N_14EvalEP13TfLiteContextP10TfLiteNode
00000000 l    df *ABS*	00000000 memory_helpers.cc
00000000 l    df *ABS*	00000000 greedy_memory_planner.cc
00000000 l    df *ABS*	00000000 linear_memory_planner.cc
00000000 l    df *ABS*	00000000 micro_allocation_info.cc
4031c0a4 l     O .rodata	00000018 _ZN6tflite12_GLOBAL__N_1L24kOfflineMemAllocMetadataE
00000000 l    df *ABS*	00000000 micro_allocator.cc
40083d40 l     F .text	00000010 _ZN6tflite12_GLOBAL__N_125MicroBuiltinDataAllocator8AllocateEjj
40083d50 l     F .text	00000004 _ZN6tflite12_GLOBAL__N_125MicroBuiltinDataAllocator10DeallocateEPv
40083e30 l     F .text	00000004 _ZN6tflite12_GLOBAL__N_125MicroBuiltinDataAllocatorD0Ev
40083e30 l     F .text	00000004 _ZN6tflite12_GLOBAL__N_125MicroBuiltinDataAllocatorD1Ev
4031c3cc l     O .rodata	00000018 _ZTVN6tflite12_GLOBAL__N_125MicroBuiltinDataAllocatorE
4031d954 l     O .rodata	00000004 _ZN6tflite12_GLOBAL__N_1L19kZeroLengthIntArrayE
00000000 l    df *ABS*	00000000 micro_context.cc
00000000 l    df *ABS*	00000000 micro_graph.cc
00000000 l    df *ABS*	00000000 micro_interpreter.cc
00000000 l    df *ABS*	00000000 micro_log.cc
00000000 l    df *ABS*	00000000 micro_profiler.cc
00000000 l    df *ABS*	00000000 micro_resource_variable.cc
00000000 l    df *ABS*	00000000 micro_string.cc
00000000 l    df *ABS*	00000000 micro_time.cc
40087a9c l       .text	00000000 read32
00000000 l    df *ABS*	00000000 micro_utils.cc
00000000 l    df *ABS*	00000000 mock_micro_graph.cc
00000000 l    df *ABS*	00000000 system_setup.cc
00000000 l    df *ABS*	00000000 test_helpers.cc
00000000 l    df *ABS*	00000000 flatbuffer_conversions_bridge.cc
00000000 l    df *ABS*	00000000 micro_error_reporter.cc
4031e234 l     O .bss	00000004 _ZN12_GLOBAL__N_115error_reporter_E
4031e238 l     O .bss	00000004 _ZN12_GLOBAL__N_127micro_error_reporter_bufferE
00000000 l    df *ABS*	00000000 op_resolver_bridge.cc
00000000 l    df *ABS*	00000000 schema_utils.cc
00000000 l    df *ABS*	00000000 tflite.cc
400887d4 l     F .text	00000004 _ZN12_GLOBAL__N_116ProgressProfilerD0Ev
400887d4 l     F .text	00000004 _ZN12_GLOBAL__N_116ProgressProfilerD1Ev
400887d8 l     F .text	00000040 _ZN12_GLOBAL__N_116ProgressProfiler10BeginEventEPKc
4051b478 l     O .bss	0000160c _ZZL11tflite_initvE8resolver
40516470 l     O .bss	00005008 _ZZL11tflite_initvE14micro_profiler
403223bc l     O .bss	001f4000 _ZN12_GLOBAL__N_1L12tensor_arenaE
40088c74 l       .text	00000000 read1084
40088c9c l       .text	00000000 read1119
405163bc l     O .bss	000000b4 _ZZ17tflite_load_modelPKhjE3buf
4031ca64 l     O .rodata	00000018 _ZTVN12_GLOBAL__N_116ProgressProfilerE
4031e240 l     O .bss	00000008 _ZGVZL11tflite_initvE14micro_profiler
4031e248 l     O .bss	00000008 _ZGVZL11tflite_initvE20micro_error_reporter
4031e250 l     O .bss	00000008 _ZGVZL11tflite_initvE8resolver
4031e258 l     O .bss	00000004 _ZN12_GLOBAL__N_111interpreterE
4031e25c l     O .bss	00000004 _ZN12_GLOBAL__N_111op_resolverE
4031e260 l     O .bss	00000004 _ZN12_GLOBAL__N_114error_reporterE
4031e264 l     O .bss	00000004 _ZN12_GLOBAL__N_18profilerE
4031e268 l     O .bss	00000001 _ZZL11tflite_initvE11initialized
4031e1bc l     O .data	00000004 _ZZL11tflite_initvE20micro_error_reporter
00000000 l    df *ABS*	00000000 tflite_unit_tests.cc
00000000 l    df *ABS*	00000000 console.c
00000000 l    df *ABS*	00000000 uart.c
4031e274 l     O .bss	00000004 rx_consume
4031e278 l     O .bss	00000004 rx_produce
4031e270 l     O .bss	00000004 tx_produce
4031e26c l     O .bss	00000004 tx_consume
4051ca84 l     O .bss	00000080 rx_buf
4051cb04 l     O .bss	00000080 tx_buf
00000000 l    df *ABS*	00000000 comparesf2.c
00000000 l    df *ABS*	00000000 comparedf2.c
00000000 l    df *ABS*	00000000 addsf3.c
00000000 l    df *ABS*	00000000 subsf3.c
00000000 l    df *ABS*	00000000 mulsf3.c
00000000 l    df *ABS*	00000000 divsf3.c
00000000 l    df *ABS*	00000000 divdi3.c
00000000 l    df *ABS*	00000000 udivmoddi4.c
00000000 l    df *ABS*	00000000 floatsisf.c
00000000 l    df *ABS*	00000000 floatunsisf.c
00000000 l    df *ABS*	00000000 fixsfsi.c
00000000 l    df *ABS*	00000000 fixdfdi.c
00000000 l    df *ABS*	00000000 fixunsdfdi.c
00000000 l    df *ABS*	00000000 adddf3.c
40089fe4 l     F .text	00000080 normalize
00000000 l    df *ABS*	00000000 subdf3.c
00000000 l    df *ABS*	00000000 muldf3.c
4008a4c8 l     F .text	00000080 normalize
00000000 l    df *ABS*	00000000 divdf3.c
4008a8d0 l     F .text	00000080 normalize
00000000 l    df *ABS*	00000000 floatsidf.c
00000000 l    df *ABS*	00000000 floatunsidf.c
00000000 l    df *ABS*	00000000 floatdidf.c
00000000 l    df *ABS*	00000000 fixdfsi.c
00000000 l    df *ABS*	00000000 fixunsdfsi.c
00000000 l    df *ABS*	00000000 clzsi2.c
00000000 l    df *ABS*	00000000 ctzsi2.c
00000000 l    df *ABS*	00000000 udivdi3.c
00000000 l    df *ABS*	00000000 umoddi3.c
00000000 l    df *ABS*	00000000 lshrdi3.c
00000000 l    df *ABS*	00000000 ashldi3.c
00000000 l    df *ABS*	00000000 bsearch.c
00000000 l    df *ABS*	00000000 abort.c
00000000 l    df *ABS*	00000000 abs.c
00000000 l    df *ABS*	00000000 strtol.c
4008b20c l     F .text	00000190 _strtol_l.part.0
00000000 l    df *ABS*	00000000 strtoll.c
4008b3d4 l     F .text	00000250 _strtoll_l.constprop.0
00000000 l    df *ABS*	00000000 strtoull.c
4008b628 l     F .text	00000230 _strtoull_l.constprop.0
00000000 l    df *ABS*	00000000 pico-cxa-atexit.c
00000000 l    df *ABS*	00000000 memcmp.c
00000000 l    df *ABS*	00000000 strncmp.c
00000000 l    df *ABS*	00000000 fputc.c
00000000 l    df *ABS*	00000000 getchar.c
00000000 l    df *ABS*	00000000 printf.c
00000000 l    df *ABS*	00000000 putchar.c
00000000 l    df *ABS*	00000000 puts.c
00000000 l    df *ABS*	00000000 strtod.c
4031d97c l     O .rodata	00000008 pstr_nfinity
4031d978 l     O .rodata	00000003 pstr_an
00000000 l    df *ABS*	00000000 vfiprintf.c
4008bee8 l     F .text	000000f4 __ultoa_invert
00000000 l    df *ABS*	00000000 atod_ryu.c
4008c700 l     F .text	000000d4 mulShift64
00000000 l    df *ABS*	00000000 ryu_log2pow5.c
00000000 l    df *ABS*	00000000 ryu_umul128.c
00000000 l    df *ABS*	00000000 s_fabs.c
00000000 l    df *ABS*	00000000 s_sqrt.c
00000000 l    df *ABS*	00000000 sf_fabs.c
00000000 l    df *ABS*	00000000 sf_fmax.c
00000000 l    df *ABS*	00000000 sf_fmin.c
00000000 l    df *ABS*	00000000 sf_fpclassify.c
00000000 l    df *ABS*	00000000 sf_sqrt.c
00000000 l    df *ABS*	00000000 s_atan.c
4031cbf8 l     O .rodata	00000020 atanhi
4031cc18 l     O .rodata	00000020 atanlo
00000000 l    df *ABS*	00000000 s_cos.c
00000000 l    df *ABS*	00000000 s_exp.c
4031cc38 l     O .rodata	00000010 ln2HI
4031cc48 l     O .rodata	00000010 ln2LO
4031cc58 l     O .rodata	00000010 halF
00000000 l    df *ABS*	00000000 s_floor.c
00000000 l    df *ABS*	00000000 s_frexp.c
00000000 l    df *ABS*	00000000 s_log.c
00000000 l    df *ABS*	00000000 s_rem_pio2.c
4031cc68 l     O .rodata	00000080 npio2_hw
4031cce8 l     O .rodata	00000108 two_over_pi
00000000 l    df *ABS*	00000000 s_sin.c
00000000 l    df *ABS*	00000000 sf_ceil.c
00000000 l    df *ABS*	00000000 sf_cos.c
00000000 l    df *ABS*	00000000 sf_exp.c
4031db14 l     O .rodata	00000008 ln2HI
4031db0c l     O .rodata	00000008 ln2LO
4031db1c l     O .rodata	00000008 halF
00000000 l    df *ABS*	00000000 sf_floor.c
00000000 l    df *ABS*	00000000 sf_fmod.c
4031db24 l     O .rodata	00000008 Zero
00000000 l    df *ABS*	00000000 sf_log.c
00000000 l    df *ABS*	00000000 sf_pow.c
4031dba0 l     O .rodata	00000008 bp
4031db90 l     O .rodata	00000008 dp_l
4031db98 l     O .rodata	00000008 dp_h
00000000 l    df *ABS*	00000000 sf_rem_pio2.c
4031cdf0 l     O .rodata	00000080 npio2_hw
4031ce70 l     O .rodata	00000318 two_over_pi
00000000 l    df *ABS*	00000000 sf_sin.c
00000000 l    df *ABS*	00000000 sf_tanh.c
4031e1cc l     O .data	00000004 one
4031e1c8 l     O .data	00000004 two
4031e1c4 l     O .data	00000004 tiny
00000000 l    df *ABS*	00000000 s_scalbn.c
00000000 l    df *ABS*	00000000 s_expm1.c
00000000 l    df *ABS*	00000000 s_log1p.c
00000000 l    df *ABS*	00000000 s_round.c
00000000 l    df *ABS*	00000000 math_err_uflow.c
4031e1d0 l     O .data	00000008 VAL
00000000 l    df *ABS*	00000000 math_err_oflow.c
4031e1d8 l     O .data	00000008 VAL
00000000 l    df *ABS*	00000000 math_err_divzero.c
4031e1e0 l     O .data	00000008 VAL
00000000 l    df *ABS*	00000000 math_err_invalid.c
4031e1e8 l     O .data	00000008 VAL
00000000 l    df *ABS*	00000000 sf_scalbn.c
00000000 l    df *ABS*	00000000 sf_expm1.c
00000000 l    df *ABS*	00000000 sf_issignaling.c
00000000 l    df *ABS*	00000000 sf_round.c
00000000 l    df *ABS*	00000000 math_errf_uflowf.c
4031e1f0 l     O .data	00000004 VAL
00000000 l    df *ABS*	00000000 math_errf_oflowf.c
4031e1f4 l     O .data	00000004 VAL
00000000 l    df *ABS*	00000000 math_errf_divzerof.c
4031e1f8 l     O .data	00000004 VAL
00000000 l    df *ABS*	00000000 math_errf_invalidf.c
4031e1fc l     O .data	00000004 VAL
00000000 l    df *ABS*	00000000 strlen.c
00000000 l    df *ABS*	00000000 stdio.c
40091c94 l     F .text	00000020 litex_getc
40091cb4 l     F .text	0000003c litex_putc
4031ddcc l     O .data	00000010 __stdio
00000000 l    df *ABS*	00000000 missing.c
00000000 l    df *ABS*	00000000 lock.c
00000000 l    df *ABS*	00000000 signal.c
4051cb84 l     O .bss	00000080 _sig_func
00000000 l    df *ABS*	00000000 pico-onexit.c
4051cc04 l     O .bss	00000180 on_exits
00000000 l    df *ABS*	00000000 strnlen.c
00000000 l    df *ABS*	00000000 fgetc.c
00000000 l    df *ABS*	00000000 ryu_table.c
4031d188 l     O .rodata	000000d0 DOUBLE_POW5_SPLIT2
4031d258 l     O .rodata	000000d0 DOUBLE_POW5_TABLE
4031d328 l     O .rodata	00000054 POW5_OFFSETS
4031d380 l     O .rodata	000000f0 DOUBLE_POW5_INV_SPLIT2
4031d470 l     O .rodata	00000054 POW5_INV_OFFSETS
00000000 l    df *ABS*	00000000 ryu_pow5bits.c
00000000 l    df *ABS*	00000000 s_fpclassify.c
00000000 l    df *ABS*	00000000 k_cos.c
00000000 l    df *ABS*	00000000 k_rem_pio2.c
4031d4c8 l     O .rodata	00000010 init_jk
4031d4d8 l     O .rodata	00000040 PIo2
00000000 l    df *ABS*	00000000 k_sin.c
00000000 l    df *ABS*	00000000 kf_cos.c
00000000 l    df *ABS*	00000000 kf_rem_pio2.c
4031d518 l     O .rodata	0000000c init_jk
4031d524 l     O .rodata	0000002c PIo2
00000000 l    df *ABS*	00000000 kf_sin.c
00000000 l    df *ABS*	00000000 libgcc2.c
00000000 l    df *ABS*	00000000 libgcc2.c
00000000 l    df *ABS*	00000000 floatundidf.c
00000000 l    df *ABS*	00000000 extendsfdf2.c
00000000 l    df *ABS*	00000000 truncdfsf2.c
00000000 l    df *ABS*	00000000 label0_board.cc
00000000 l    df *ABS*	00000000 label11_board.cc
00000000 l    df *ABS*	00000000 label1_board.cc
00000000 l    df *ABS*	00000000 label6_board.cc
00000000 l    df *ABS*	00000000 label8_board.cc
00000000 l    df *ABS*	00000000 no_person_image_data.cc
00000000 l    df *ABS*	00000000 person_image_data.cc
00000000 l    df *ABS*	00000000 conv_test_data.cc
00000000 l    df *ABS*	00000000 ctype_.c
00000000 l    df *ABS*	00000000 libgcc2.c
00000000 l    df *ABS*	00000000 micro_test_globals.cc
00000000 l    df *ABS*	00000000 errno.c
4000bef4 g     F .text	00000194 _ZN6tflite8internal11Spectrogram10InitializeEiiiii
4006bcf0  w    F .text	00000290 _ZN6tflite3ops5micro5split9SplitImplIaEE12TfLiteStatusP13TfLiteContextP10TfLiteNodePK16TfLiteEvalTensori
400115c8 g     F .text	00000024 _ZN6tflite16FakeMicroContext16GetScratchBufferEi
40007abc g     F .text	000000cc _ZN6tflite12ParseReducerEPKNS_8OperatorEPNS_13ErrorReporterEPNS_20BuiltinDataAllocatorEPPv
40040b44  w    F .text	000003f4 _ZN6tflite15NDOpsHelperImplILi5ELi1EZNS_13reference_ops16BroadcastDivSlowIfLi5EEEvRKNS_16ArithmeticParamsERKNS_12RuntimeShapeEPKT_S8_SB_S8_PS9_EUlPiE_EENSt9enable_ifIXneT0_miT_Li1EEvE4typeERKNS_11NdArrayDescIXT_EEERKT1_SD_
4008b980 g     F .text	0000000c putchar
400857dc g     F .text	000000a0 _ZN6tflite10MicroGraph16GetSubgraphInputEii
4008f30c g     F .text	00000b20 _powf
40085720 g     F .text	00000004 _ZN6tflite10MicroGraphD0Ev
4005c424 g     F .text	000002d8 _ZN6tflite27AveragePoolingEvalQuantizedEP13TfLiteContextPK10TfLiteNodePK16TfLitePoolParamsPKNS_13OpDataPoolingEPK16TfLiteEvalTensorPSB_
4000b674 g     F .text	000000a8 _ZN6tflite12tensor_utils16PortableCwiseMulEPKsS2_iiiPs
40319738 g     O .rodata	00000010 _ZN6tflite17kConvInput1x4x4x1E
4008b0f8 g     F .text	0000003c __ashldi3
40005f5c g     F .text	0000000c do_util_tests_menu
4000704c g     F .text	00000008 _ZN6tflite9ParseFillEPKNS_8OperatorEPNS_13ErrorReporterEPNS_20BuiltinDataAllocatorEPPv
400905c8 g     F .text	0000067c expm1
40006170 g     F .text	00000040 _ZN6tflite13ErrorReporter6ReportEPKcz
40010f5c g     F .text	0000004c _ZNK6tflite26SingleArenaBufferAllocator18GetAvailableMemoryEj
40089168 g     F .text	00000094 __cmpdf2
400886c4  w    F .text	00000004 _ZN6tflite18MicroErrorReporterD2Ev
4031e00c g     O .data	00000004 ds_cnn_stream_fe_len
4008ed8c g     F .text	000001e8 fmodf
4008cb44 g     F .text	00000018 fabs
4031d840 g     O .rodata	00000004 _ZN6tflite27kFullyConnectedOutputTensorE
4008db9c g     F .text	0000061c log
4005c004 g     F .text	00000420 _ZN6tflite23AveragePoolingEvalFloatEPK13TfLiteContextPK10TfLiteNodePK16TfLitePoolParamsPKNS_13OpDataPoolingEPK16TfLiteEvalTensorPSC_
4008cb5c g     F .text	00000234 sqrt
400080a8 g     F .text	00000008 _ZN6tflite10ParseSliceEPKNS_8OperatorEPNS_13ErrorReporterEPNS_20BuiltinDataAllocatorEPPv
4031d76c g     O .rodata	00000004 _ZN6tflite23kActivationsInputTensorE
400075dc g     F .text	00000008 _ZN6tflite14ParseLessEqualEPKNS_8OperatorEPNS_13ErrorReporterEPNS_20BuiltinDataAllocatorEPPv
400892cc g     F .text	00000004 __eqdf2
4004e8c8 g     F .text	000003a8 _ZN6tflite33CalculateArithmeticOpDataLogisticEP13TfLiteContextP10TfLiteNodePNS_14OpDataLogisticE
4000cfdc  w    F .text	00000008 _ZNK6tflite10OpResolver24MayContainUserDefinedOpsEv
40089988 g     F .text	00000078 __divdi3
40082568 g     F .text	00000010 _ZN6tflite19GreedyMemoryPlannerC1Ev
40085164 g     F .text	0000015c _ZN6tflite14MicroAllocator21FinishModelAllocationEPKNS_5ModelEPNS_19SubgraphAllocationsEPPNS_19ScratchBufferHandleE
4002931c g     F .text	0000018c _ZN6tflite3ops5micro13concatenation4EvalEP13TfLiteContextP10TfLiteNode
4031d85c g     O .rodata	00000004 _ZN6tflite12kInputTensorE
40083b0c g     F .text	00000234 _ZN6tflite21AllocationInfoBuilder24GetOfflinePlannedOffsetsEPPKl
40000458 g     F .text	00000418 donut
400914e0 g     F .text	00000108 ldexpf
4008ae0c g     F .text	00000058 __floatdidf
4031ac68 g     O .rodata	00000009 _ZN6tflite39kConvGoldenOutput5x5InputPaddingSame3x3E
40091f40 g     F .text	000001cc __double_computePow5
4004b588 g     F .text	00000044 _ZN6tflite19Register_LEAKY_RELUEv
40011fe0 g     F .text	000001d4 _ZN6tflite11ReluPrepareEP13TfLiteContextP10TfLiteNode
40016a30  w    F .text	0000000c _ZN11flexbuffers10KeyCompareItEEiPKvS2_
4008b938 g     F .text	00000048 printf
400116a0 g     F .text	00000084 _ZN6tflite16FakeMicroContextC1EP12TfLiteTensorPNS_26SingleArenaBufferAllocatorEPNS_10MicroGraphE
4031dc60 g     O .rodata	00000004 stdout
4031dd30 g       .data	00000000 _fdata
40011078 g     F .text	00000004 _ZThn4_N6tflite26SingleArenaBufferAllocatorD1Ev
40006158 g     F .text	00000004 _Z15tflite_postloadv
4031d938 g     O .rodata	00000004 _ZN6tflite17kSvdfOutputTensorE
4031bfac  w    O .rodata	0000002c _ZTVN6tflite19GreedyMemoryPlannerE
4005f820 g     F .text	00000040 _ZN6tflite22Register_READ_VARIABLEEv
40011730 g     F .text	000000a4 _ZN6tflite17FlexbufferWrapperC1EPKhj
4000c558 g     F .text	00000198 _ZN6tflite32GetQuantizedConvolutionMultiplerEP13TfLiteContextPK12TfLiteTensorS4_S4_PS2_Pd
400068bc g     F .text	00000104 _ZN6tflite18ParseConcatenationEPKNS_8OperatorEPNS_13ErrorReporterEPNS_20BuiltinDataAllocatorEPPv
4000706c g     F .text	000001c0 _ZN6tflite19ParseFullyConnectedEPKNS_8OperatorEPNS_13ErrorReporterEPNS_20BuiltinDataAllocatorEPPv
400115ec  w    F .text	00000010 _ZN6tflite16FakeMicroContextD0Ev
4004feec g     F .text	000002ec _ZN6tflite13lstm_internal13LstmStepFloatEPKfS2_S2_S2_S2_S2_S2_S2_S2_S2_S2_S2_S2_S2_S2_S2_S2_S2_S2_S2_S2_S2_S2_S2_S2_S2_S2_PK16TfLiteLSTMParamsiiiiiiPfS6_S6_S6_S6_S6_S6_
40009120 g     F .text	00000060 TfLiteIntArrayEqual
40018558 g     F .text	00000040 _ZN6tflite26Register_BATCH_TO_SPACE_NDEv
40011724 g     F .text	0000000c _ZN6tflite16FakeMicroContext32IsAllTempTfLiteTensorDeallocatedEv
4000cf80 g     F .text	0000002c _ZN6tflite17TfLiteTypeGetSizeE10TfLiteType
400862f4 g     F .text	000000b0 _ZN6tflite16MicroInterpreter6outputEj
4009127c g     F .text	00000100 round
4031d930 g     O .rodata	00000004 _ZN6tflite15kSvdfBiasTensorE
40035c2c g     F .text	000003ac _ZN6tflite28CalculateOpDataDepthwiseConvEP13TfLiteContextP10TfLiteNodeRK25TfLiteDepthwiseConvParamsiiiiii10TfLiteTypePNS_10OpDataConvE
400863ec g     F .text	00000490 _ZN6tflite16MicroInterpreter44PrepareNodeAndRegistrationDataFromFlatbufferEv
400793c4 g     F .text	00000044 _ZN6tflite3ops5micro13Register_TANHEv
4000c3ac g     F .text	00000004 _ZN6tflite12tensor_utils35MatrixBatchVectorMultiplyAccumulateEPKfiiS2_iPf
4005f884 g     F .text	00000008 _ZN6tflite7EvalMaxEP13TfLiteContextP10TfLiteNode
4031d798 g     O .rodata	00000004 _ZN6tflite16kAddOutputTensorE
40089750 g     F .text	00000238 __divsf3
4001a400 g     F .text	00000040 _ZN6tflite3ops5micro13Register_CEILEv
40087e94 g     F .text	00000114 _ZN6tflite14MockMicroGraphC1EPNS_26SingleArenaBufferAllocatorE
40067bc0 g     F .text	00000040 _ZN6tflite14Register_SHAPEEv
4004c4b4  w    F .text	000001f4 _ZN8gemmlowp55exp_on_interval_between_negative_one_quarter_and_0_exclIlEENS_10FixedPointIT_Li0EEES3_
40079a94 g     F .text	00000524 _ZN6tflite3ops5micro11activations8TanhEvalEP13TfLiteContextP10TfLiteNode
40010eb4 g     F .text	00000040 _ZN6tflite26SingleArenaBufferAllocator20IsAllTempDeallocatedEv
4000ba1c g     F .text	00000268 _ZN6tflite12tensor_utils47PortableVectorBatchVectorCwiseProductAccumulateEPKsiS2_iliPs
40091424 g     F .text	00000058 .hidden __math_divzero
40007e78 g     F .text	000000fc _ZN6tflite26ParseResizeNearestNeighborEPKNS_8OperatorEPNS_13ErrorReporterEPNS_20BuiltinDataAllocatorEPPv
4000bd00 g     F .text	00000030 _ZN6tflite12tensor_utils18PortableSub1VectorEPKsiPs
4003f71c g     F .text	00000044 _ZN6tflite12Register_DIVEv
400860cc g     F .text	0000005c _ZN6tflite10MicroGraphC1EP13TfLiteContextPKNS_5ModelEPNS_14MicroAllocatorEPNS_22MicroResourceVariablesE
40086240 g     F .text	000000b4 _ZN6tflite16MicroInterpreter5inputEj
4031e22c g     O .bss	00000004 _ZN10micro_test12tests_passedE
40006330 g     F .text	00000110 _ZN6tflite8ParseAddEPKNS_8OperatorEPNS_13ErrorReporterEPNS_20BuiltinDataAllocatorEPPv
40091c00 g     F .text	0000003c memmove
40062f68  w    F .text	00000674 _ZN6tflite13reference_ops14ResizeBilinearIfEEvRKNS_20ResizeBilinearParamsERKNS_12RuntimeShapeEPKT_S7_PKlS7_PS8_
4000a720 g     F .text	00000138 _ZN6tflite12tensor_utils43PortableMatrixBatchVectorMultiplyAccumulateEPKfiiS2_iPf
40085524 g     F .text	00000010 _ZN6tflite12MicroContext26DeallocateTempTfLiteTensorEP12TfLiteTensor
40011090 g     F .text	0000008c _ZN6tflite26SingleArenaBufferAllocator20ResetTempAllocationsEv
40076248  w    F .text	000003bc _ZN6tflite15NDOpsHelperImplILi5ELi1EZNS_13reference_ops16BroadcastSubSlowILi5EEEvRKNS_16ArithmeticParamsERKNS_12RuntimeShapeEPKfS8_SA_S8_PfEUlPiE_EENSt9enable_ifIXneT0_miT_Li1EEvE4typeERKNS_11NdArrayDescIXT_EEERKT1_SC_
4008731c g     F .text	00000778 MicroVsnprintf
4031d7b8 g     O .rodata	00000004 _ZN6tflite17kConvOutputTensorE
40016a0c  w    F .text	0000000c _ZN11flexbuffers10KeyCompareImEEiPKvS2_
4008f30c g     F .text	00000b20 powf
4000c3b0 g     F .text	00000004 _ZN6tflite12tensor_utils35MatrixBatchVectorMultiplyAccumulateEPKaPKlS2_llllllPlPsPNS_17CpuBackendContextE
40008184 g     F .text	000000c8 _ZN6tflite17ParseSpaceToDepthEPKNS_8OperatorEPNS_13ErrorReporterEPNS_20BuiltinDataAllocatorEPPv
4005f87c g     F .text	00000008 _ZN6tflite8EvalMeanEP13TfLiteContextP10TfLiteNode
400871f4 g     F .text	000000c0 _ZN6tflite22MicroResourceVariables6AssignEiPK16TfLiteEvalTensor
40089e48 g     F .text	0000007c __fixsfsi
4004be50 g     F .text	000002c4 _ZN6tflite16LeakyReluPrepareEP13TfLiteContextP10TfLiteNode
400886c8 g     F .text	00000024 _ZN6tflite18MicroErrorReporter6ReportEPKcPv
400731dc g     F .text	00000608 _ZN6tflite3ops5micro13strided_slice7PrepareEP13TfLiteContextP10TfLiteNode
4000c550 g     F .text	00000004 _ZN6tflite12tensor_utils10Sub1VectorEPKsiPs
4000c548 g     F .text	00000004 _ZN6tflite12tensor_utils39VectorBatchVectorCwiseProductAccumulateEPKsiS2_iliPs
40010ddc g     F .text	00000004 _ZN6tflite26SingleArenaBufferAllocatorD0Ev
4000044c g     F .text	0000000c do_benchmarks_menu
4005bcd4 g     F .text	00000044 _ZN6tflite20Register_MAX_POOL_2DEv
400892d8 g     F .text	00000004 __gtdf2
40016da8  w    F .text	000001d0 _ZN6tflite3ops5micro17audio_spectrogram4EvalILNS2_10KernelTypeE0EEE12TfLiteStatusP13TfLiteContextP10TfLiteNode
40008770 g     F .text	00000008 _ZN6tflite22ParseSquaredDifferenceEPKNS_8OperatorEPNS_13ErrorReporterEPNS_20BuiltinDataAllocatorEPPv
4003b9a8 g     F .text	0000000c _ZN6tflite14DequantizeInitEP13TfLiteContextPKcj
4000702c g     F .text	00000008 _ZN6tflite8ParseEluEPKNS_8OperatorEPNS_13ErrorReporterEPNS_20BuiltinDataAllocatorEPPv
40047618 g     F .text	00000080 _ZN6tflite25FullyConnectedParamsFloatE21TfLiteFusedActivation
400069c0 g     F .text	000001cc _ZN6tflite11ParseConv2DEPKNS_8OperatorEPNS_13ErrorReporterEPNS_20BuiltinDataAllocatorEPPv
40088be4 g     F .text	00000028 _Z17tflite_get_outputv
4008fe2c g     F .text	0000045c __rem_pio2f
40311680  w    O .rodata	00000034 _ZTVN6tflite16FakeMicroContextE
4000bd30 g     F .text	000001c4 _ZN6tflite12tensor_utils31PortableMeanStddevNormalizationEPKfPfii
4006f460 g     F .text	00003560 _ZN6tflite3ops5micro13strided_slice4EvalEP13TfLiteContextP10TfLiteNode
4009033c g     F .text	00000154 tanhf
40083d54 g     F .text	00000004 _ZN6tflite14MicroAllocatorD0Ev
4004ca44  w    F .text	00000888 _ZN6tflite43log_x_for_x_greater_than_or_equal_to_1_implILi5ELi12EEEN8gemmlowp10FixedPointIlXT_EEENS2_IlXT0_EEE
40086130 g     F .text	00000110 _ZN6tflite16MicroInterpreterC1EPKNS_5ModelERKNS_15MicroOpResolverEPhjPNS_22MicroResourceVariablesEPNS_22MicroProfilerInterfaceE
4008ef74 g     F .text	00000398 logf
4000090c g     F .text	00000004 no_menu
40088818 g     F .text	000002c4 _Z17tflite_load_modelPKhj
4005432c g     F .text	00000400 _ZN6tflite3ops5micro4mfcc7PrepareEP13TfLiteContextP10TfLiteNode
40087abc g     F .text	00000034 _ZN6tflite12ElementCountERK14TfLiteIntArray
4001904c  w    F .text	00000254 _ZN6tflite13reference_ops13BroadcastImplILi5EEEvRKNS_11NdArrayDescIXT_EEEPKcS5_PcPiiii
400656b0  w    F .text	00000868 _ZN6tflite13reference_ops21BroadcastSelect5DSlowIbfEEvRKNS_12RuntimeShapeEPKT_S4_PKT0_S4_SA_S4_PS8_
40006c90 g     F .text	000000c8 _ZN6tflite17ParseDepthToSpaceEPKNS_8OperatorEPNS_13ErrorReporterEPNS_20BuiltinDataAllocatorEPPv
40015c38 g     F .text	00000040 _ZN6tflite14Register_ADD_NEv
4031e27c g     O .bss	00000004 errno
40000a94 g     F .text	000003f0 bitrv2
4008d9b4 g     F .text	0000011c floor
400122f8 g     F .text	0000000c _ZN6tflite7AddInitEP13TfLiteContextPKcj
40086de8 g     F .text	00000094 _ZN6tflite13MicroProfiler10BeginEventEPKc
40094304 g       .text	00000000 _etext
4008cac8 g     F .text	0000007c __shiftright128
40087fb0 g     F .text	00000030 _ZN6tflite7testing20FloatArrayFromFloatsEPKf
40006688 g     F .text	00000008 _ZN6tflite16ParseBroadcastToEPKNS_8OperatorEPNS_13ErrorReporterEPNS_20BuiltinDataAllocatorEPPv
400499ac g     F .text	00000118 _ZN6tflite5micro32CreateWritableTensorDimsWithCopyEP13TfLiteContextP12TfLiteTensorP16TfLiteEvalTensor
40006d58 g     F .text	000001f4 _ZN6tflite20ParseDepthwiseConv2DEPKNS_8OperatorEPNS_13ErrorReporterEPNS_20BuiltinDataAllocatorEPPv
40052670  w    F .text	00000464 _ZN6tflite13reference_ops27MaximumMinimumBroadcastSlowIfPFfffELi5EEEvRKNS_12RuntimeShapeEPKT_S6_S9_S6_PS7_T0_
400078e0 g     F .text	00000008 _ZN6tflite10ParsePadV2EPKNS_8OperatorEPNS_13ErrorReporterEPNS_20BuiltinDataAllocatorEPPv
40087b6c g     F .text	000002dc _ZN6tflite33SignedSymmetricPerChannelQuantizeEPKfP14TfLiteIntArrayiPaPf10TfLiteType
40085560 g     F .text	00000014 _ZN6tflite12MicroContext27RequestScratchBufferInArenaEjPi
4031d8b0 g     O .rodata	00000004 _ZN6tflite16kMulInput1TensorE
40028fb8  w    F .text	00000364 _ZN6tflite3ops5micro13concatenation15EvalUnquantizedIbEEvP13TfLiteContextP10TfLiteNode
40008c94 g     F .text	000000f4 _ZN6tflite11ParseUnpackEPKNS_8OperatorEPNS_13ErrorReporterEPNS_20BuiltinDataAllocatorEPPv
4004f3bc g     F .text	000001a0 _ZN6tflite13lstm_internal19UpdateLstmCellFloatEiiPfPKfS1_S3_bf
4008b134 g     F .text	000000b0 bsearch
4031dde0 g       .data	00000000 _gp
40055688 g     F .text	00000120 _ZN6tflite7MulEvalEP13TfLiteContextP10TfLiteNode
40087fa8 g     F .text	00000004 _ZN6tflite16InitializeTargetEv
40068944 g     F .text	00000044 _ZN6tflite16Register_SOFTMAXEv
40008314 g     F .text	000000c8 _ZN6tflite11ParseSplitVEPKNS_8OperatorEPNS_13ErrorReporterEPNS_20BuiltinDataAllocatorEPPv
40089530 g     F .text	0000000c __subsf3
40007328 g     F .text	00000008 _ZN6tflite12ParseGreaterEPKNS_8OperatorEPNS_13ErrorReporterEPNS_20BuiltinDataAllocatorEPPv
40088f94 g     F .text	00000078 uart_write
40091cf8 g     F .text	00000008 getpid
400863a4 g     F .text	00000048 _ZN6tflite16MicroInterpreterD2Ev
4031d940 g     O .rodata	00000004 _ZN6tflite25kSvdfWeightsFeatureTensorE
40082998 g     F .text	000003c0 _ZN6tflite19GreedyMemoryPlanner15PrintMemoryPlanEv
40077250 g     F .text	00000044 _ZN6tflite13Register_SVDFEv
4006c55c g     F .text	000000fc _ZN6tflite3ops5micro7split_v7PrepareEP13TfLiteContextP10TfLiteNode
4008cef0 g     F .text	00000118 sqrtf
4002b62c g     F .text	00000340 _ZN6tflite11ConvPrepareEP13TfLiteContextP10TfLiteNode
4006cb40  w    F .text	0000027c _ZN6tflite3ops5micro7split_v9SplitImplIsEE12TfLiteStatusP13TfLiteContextP10TfLiteNodePK16TfLiteEvalTensori
40007b90 g     F .text	00000008 _ZN6tflite10ParseRelu6EPKNS_8OperatorEPNS_13ErrorReporterEPNS_20BuiltinDataAllocatorEPPv
400863a4 g     F .text	00000048 _ZN6tflite16MicroInterpreterD1Ev
4001a694 g     F .text	000002f4 _ZN6tflite21CircularBufferPrepareEP13TfLiteContextP10TfLiteNode
4000c328 g     F .text	00000084 _ZN6tflite12tensor_utils12IsZeroVectorEPKfi
40006328 g     F .text	00000008 _ZN6tflite8ParseAbsEPKNS_8OperatorEPNS_13ErrorReporterEPNS_20BuiltinDataAllocatorEPPv
40091e78 g     F .text	0000007c getc
4006a5fc g     F .text	0000000c _ZN6tflite11SoftmaxInitEP13TfLiteContextPKcj
40006c88 g     F .text	00000008 _ZN6tflite8ParseCosEPKNS_8OperatorEPNS_13ErrorReporterEPNS_20BuiltinDataAllocatorEPPv
40001060 g     F .text	000010c4 cft1st
40091a3c g     F .text	00000020 __issignalingf
4031d844 g     O .rodata	00000004 _ZN6tflite28kFullyConnectedWeightsTensorE
40087e7c g     F .text	00000008 _ZN6tflite14MockMicroGraph12NumSubgraphsEv
40043a44 g     F .text	00000040 _ZN6tflite3ops5micro12Register_SINEv
400008d4 g     F .text	00000038 putsnonl
40009f54 g     F .text	0000006c _ZN6tflite12tensor_utils23UnpackDenseInt4IntoInt8EPKaiPa
4031d838 g     O .rodata	00000004 _ZN6tflite25kFullyConnectedBiasTensorE
4008c7d4 g     F .text	00000268 __atod_engine
4001a988 g     F .text	0000000c _ZN6tflite3ops5micro11comparisons4InitEP13TfLiteContextPKcj
4000615c g     F .text	00000014 software_cfu
40091bdc g     F .text	00000024 memcpy
400279a8 g     F .text	00000044 _ZN6tflite3ops5micro19Register_LESS_EQUALEv
4000d464 g     F .text	00003978 _ZN6tflite14AllOpsResolverC2Ev
4031d8bc g     O .rodata	00000004 _ZN6tflite19kPoolingInputTensorE
4009147c g     F .text	00000064 .hidden __math_invalid
40000910 g     F .text	0000000c embench_menu
40011344 g     F .text	00000134 _ZN6tflite26SingleArenaBufferAllocator23AllocateResizableBufferEjj
40054fac g     F .text	0000018c _ZN6tflite31PortableApplyActivationToVectorEPKfi21TfLiteFusedActivationPf
4005f8d8 g     F .text	00000044 _ZN6tflite19Register_REDUCE_MAXEv
40005744 g     F .text	000002c4 perf_print_all_counters
4008ad04 g     F .text	00000094 __floatsidf
400501d8 g     F .text	000005b4 _ZN6tflite13lstm_internal21LstmStepInteger8x8_16EPKaS2_llS2_llS2_llS2_llS2_llS2_llS2_llS2_llPKsllS4_llS4_llS2_lllllS4_llS4_llS4_llS4_llPKlS6_S6_S6_salllllS6_S6_S6_S6_S6_S6_S6_S6_S6_iiiiPalPsS7_S8_S8_S8_S8_S7_Pl
4031e230 g     O .bss	00000001 _ZN10micro_test13did_test_failE
400892d0 g     F .text	00000004 __ltdf2
40035a68 g     F .text	00000100 _ZN6tflite24DepthwiseConvParamsFloatERK25TfLiteDepthwiseConvParamsRKNS_10OpDataConvE
40085720 g     F .text	00000004 _ZN6tflite10MicroGraphD1Ev
40000020 g     F .text	0000001c isr
40062348 g     F .text	00000474 _ZN6tflite13EvalSumHelperEP13TfLiteContextP10TfLiteNodePNS_12OpDataReduceE
400854d4 g     F .text	00000004 _ZN6tflite12MicroContextD2Ev
40035fd8 g     F .text	00000390 _ZN6tflite20DepthwiseConvPrepareEP13TfLiteContextP10TfLiteNode
40007f84 g     F .text	00000008 _ZN6tflite13ParseSelectV2EPKNS_8OperatorEPNS_13ErrorReporterEPNS_20BuiltinDataAllocatorEPPv
40008f70 g     F .text	00000008 _ZN6tflite14ParseZerosLikeEPKNS_8OperatorEPNS_13ErrorReporterEPNS_20BuiltinDataAllocatorEPPv
40076604 g     F .text	0000056c _ZN6tflite7EvalSubEP13TfLiteContextP10TfLiteNodeP15TfLiteSubParamsPKNS_9OpDataSubEPK16TfLiteEvalTensorSB_PS9_
4008b98c g     F .text	0000007c puts
400856dc g     F .text	00000008 _ZN6tflite12MicroContext23SetScratchBufferHandlesEPNS_19ScratchBufferHandleE
4000bc84 g     F .text	0000007c _ZN6tflite12tensor_utils18PortableSub1VectorEPKfiPf
4006c698  w    F .text	0000020c _ZN6tflite3ops5micro7split_v9SplitImplIfEE12TfLiteStatusP13TfLiteContextP10TfLiteNodePK16TfLiteEvalTensori
40092308 g     F .text	00000044 __fpclassifyd
4000403c g     F .text	000002fc rftbsub
40006f4c g     F .text	00000008 _ZN6tflite15ParseDequantizeEPKNS_8OperatorEPNS_13ErrorReporterEPNS_20BuiltinDataAllocatorEPPv
400856b8 g     F .text	00000024 _ZN6tflite12MicroContextC2EPNS_14MicroAllocatorEPKNS_5ModelEPNS_10MicroGraphE
40088c34 g     F .text	000000dc _Z15tflite_classifyv
4000496c g     F .text	0000000c do_functional_cfu_tests
4031d794 g     O .rodata	00000004 _ZN6tflite16kAddInputTensor2E
40063f00 g     F .text	00000ce0 _ZN6tflite3ops5micro23resize_nearest_neighbor4EvalEP13TfLiteContextP10TfLiteNode
4005f86c g     F .text	00000008 _ZN6tflite10PrepareMaxEP13TfLiteContextP10TfLiteNode
4000d03c  w    F .text	00000004 _ZN6tflite14AllOpsResolverD0Ev
40073828 g     F .text	0000000c _ZN6tflite7SubInitEP13TfLiteContextPKcj
40019fcc g     F .text	00000040 _ZN6tflite13Register_CASTEv
40010e34 g     F .text	00000080 _ZN6tflite26SingleArenaBufferAllocator12AllocateTempEjj
4000817c g     F .text	00000008 _ZN6tflite19ParseSpaceToBatchNdEPKNS_8OperatorEPNS_13ErrorReporterEPNS_20BuiltinDataAllocatorEPPv
40091a5c g     F .text	00000088 roundf
40088b2c g     F .text	0000005c _Z16tflite_set_inputPKv
40002124 g     F .text	00001368 cftmdl
40004dc8 g     F .text	00000030 ds_cnn_stream_fe_menu
40004978 g     F .text	00000170 menu_run
4031d93c g     O .rodata	00000004 _ZN6tflite22kSvdfWeightsTimeTensorE
4031d7bc g     O .rodata	00000004 _ZN6tflite18kConvWeightsTensorE
400523d4 g     F .text	0000003c _ZN6tflite3ops5micro16Register_MAXIMUMEv
400008ac g     F .text	0000000c models_menu
40321b40 g     O .bss	00000804 mfcc_input
400854fc g     F .text	00000028 _ZN6tflite12MicroContext24AllocateTempTfLiteTensorEi
4005d84c g     F .text	000005ec _ZN6tflite25BroadcastPrelu4DSlowFloatERKNS_12RuntimeShapeEPKfS2_S4_S2_Pf
4031c96c  w    O .rodata	00000038 _ZTVN6tflite14MockMicroGraphE
4009234c g     F .text	00000260 __kernel_cos
40090490 g     F .text	00000138 ldexp
4008b624 g     F .text	00000004 strtoll
40089068 g     F .text	00000060 __lesf2
4004da54 g     F .text	0000003c _ZN6tflite20Register_LOGICAL_ANDEv
4000c3c4 g     F .text	00000004 _ZN6tflite12tensor_utils8CwiseMulEPKsS2_lllllPa
4008aefc g     F .text	00000084 __fixunsdfsi
40076b70 g     F .text	00000138 _ZN6tflite7SubEvalEP13TfLiteContextP10TfLiteNode
4005f894 g     F .text	00000044 _ZN6tflite13Register_MEANEv
40077990 g     F .text	000006a4 _ZN6tflite21EvalInt8SvdfReferenceEP13TfLiteContextP10TfLiteNodePK16TfLiteEvalTensorS6_S6_S6_PK16TfLiteSVDFParamsPS4_SA_RKNS_10OpDataSvdfE
400075e4 g     F .text	00000008 _ZN6tflite8ParseLogEPKNS_8OperatorEPNS_13ErrorReporterEPNS_20BuiltinDataAllocatorEPPv
40060b80 g     F .text	00000f30 _ZN6tflite14EvalMeanHelperEP13TfLiteContextP10TfLiteNodePNS_12OpDataReduceE
400860cc g     F .text	0000005c _ZN6tflite10MicroGraphC2EP13TfLiteContextPKNS_5ModelEPNS_14MicroAllocatorEPNS_22MicroResourceVariablesE
40086da8 g     F .text	00000040 _Z11MicroPrintfPKcz
4001a440 g     F .text	00000094 _ZN6tflite18CircularBufferInitEP13TfLiteContextPKcj
4005cddc g     F .text	00000a2c _ZN6tflite9PreluEvalEP13TfLiteContextP10TfLiteNode
4008cea4 g     F .text	0000004c __fpclassifyf
4031a468 g     O .rodata	00000800 _ZN6tflite26kConvGoldenOutput1x16x16x8E
40011e80 g     F .text	000000e4 _ZN6tflite10Relu6FloatERKNS_12RuntimeShapeEPKfS2_Pf
400737e4 g     F .text	00000044 _ZN6tflite3ops5micro22Register_STRIDED_SLICEEv
4031e1c0 g     O .data	00000004 .hidden __dso_handle
40073834 g     F .text	00000044 _ZN6tflite12Register_SUBEv
4005489c g     F .text	00000704 _ZN6tflite3ops5micro4mfcc4InitEP13TfLiteContextPKcj
4001180c g     F .text	00000040 _ZN6tflite20NumSubgraphOperatorsEPKNS_8SubGraphE
4004df98 g     F .text	00000044 _ZN6tflite17Register_LOGISTICEv
00000000 g       *ABS*	00000000 __DYNAMIC
4030ce40 g     O .rodata	00002400 g_no_person_data
4008bfdc g     F .text	00000724 __i_vfprintf
40082f90 g     F .text	0000004c _ZN6tflite21AllocationInfoBuilder18FreeAllocationInfoEv
40008e7c g     F .text	000000f4 _ZN6tflite10ParseWhileEPKNS_8OperatorEPNS_13ErrorReporterEPNS_20BuiltinDataAllocatorEPPv
40049520  w    F .text	00000010 _ZN6tflite21MicroContextGetTensorEPK13TfLiteContexti
4006cdbc  w    F .text	0000020c _ZN6tflite3ops5micro7split_v9SplitImplIlEE12TfLiteStatusP13TfLiteContextP10TfLiteNodePK16TfLiteEvalTensori
40046540 g     F .text	00000044 _ZN6tflite18Register_FLOOR_MODEv
40089a00 g     F .text	000002f0 __udivmoddi4
40035a24 g     F .text	00000044 _ZN6tflite26Register_DEPTHWISE_CONV_2DEv
40088d10 g     F .text	00000040 tflite_do_tests
40009114 g     F .text	0000000c TfLiteIntArrayGetSizeInBytes
4004c6a8  w    F .text	0000039c _ZN8gemmlowp22exp_on_negative_valuesIlLi5EEENS_10FixedPointIT_Li0EEENS1_IS2_XT0_EEE
4005de38 g     F .text	00000230 _ZN6tflite12PreluPrepareEP13TfLiteContextP10TfLiteNode
40091b9c g     F .text	00000040 .hidden __math_invalidf
4000722c g     F .text	000000f4 _ZN6tflite11ParseGatherEPKNS_8OperatorEPNS_13ErrorReporterEPNS_20BuiltinDataAllocatorEPPv
40079408  w    F .text	0000068c _ZN8gemmlowp40one_minus_x_over_one_plus_x_for_x_in_0_1IlEENS_10FixedPointIT_Li0EEES3_
400828f0 g     F .text	000000a8 _ZN6tflite19GreedyMemoryPlanner20GetMaximumMemorySizeEv
4008cd90 g     F .text	0000000c fabsf
40010fa8 g     F .text	000000d0 _ZN6tflite26SingleArenaBufferAllocator12ResizeBufferEPhjj
40086130 g     F .text	00000110 _ZN6tflite16MicroInterpreterC2EPKNS_5ModelERKNS_15MicroOpResolverEPhjPNS_22MicroResourceVariablesEPNS_22MicroProfilerInterfaceE
4000857c g     F .text	000001e4 _ZN6tflite12ParseSqueezeEPKNS_8OperatorEPNS_13ErrorReporterEPNS_20BuiltinDataAllocatorEPPv
40088f78 g     F .text	0000001c uart_read_nonblock
4030c40c  w    O .rodata	00000280 _ZZN6tflite24EnumNamesBuiltinOperatorEvE5names
4031d7a4 g     O .rodata	00000004 _ZN6tflite26kCircularBufferInputTensorE
40083e08 g     F .text	00000010 _ZN6tflite14MicroAllocator20IsAllTempDeallocatedEv
40006b8c g     F .text	000000fc _ZN6tflite11ParseCumsumEPKNS_8OperatorEPNS_13ErrorReporterEPNS_20BuiltinDataAllocatorEPPv
4031c4b8  w    O .rodata	00000038 _ZTVN6tflite10MicroGraphE
4031d7b4 g     O .rodata	00000004 _ZN6tflite16kConvInputTensorE
400076fc g     F .text	000000d8 _ZN6tflite8ParseMulEPKNS_8OperatorEPNS_13ErrorReporterEPNS_20BuiltinDataAllocatorEPPv
40006678 g     F .text	00000008 _ZN6tflite19ParseBatchToSpaceNdEPKNS_8OperatorEPNS_13ErrorReporterEPNS_20BuiltinDataAllocatorEPPv
40093030 g     F .text	00000250 __kernel_sin
400940a4 g     F .text	000000dc .hidden __extendsfdf2
400083dc g     F .text	000001a0 _ZN6tflite31ParseUnidirectionalSequenceLSTMEPKNS_8OperatorEPNS_13ErrorReporterEPNS_20BuiltinDataAllocatorEPPv
4031d860 g     O .rodata	00000004 _ZN6tflite13kOutputTensorE
40087e84  w    F .text	00000010 _ZN6tflite14MockMicroGraphD1Ev
40083134 g     F .text	0000027c _ZN6tflite21AllocationInfoBuilder24InitializeAllocationInfoEPKlPNS_19SubgraphAllocationsE
40047698 g     F .text	000000d4 _ZN6tflite29CalculateOpDataFullyConnectedEP13TfLiteContext21TfLiteFusedActivation10TfLiteTypePK12TfLiteTensorS6_S6_PS4_PNS_20OpDataFullyConnectedE
4008a064 g     F .text	0000044c __adddf3
40089160 g     F .text	00000004 __nesf2
40085480 g     F .text	0000004c _ZNK6tflite14MicroAllocator10used_bytesEv
4031f068 g     O .bss	00000280 working
40009b00 g     F .text	000001cc _ZNK6tflite8internal17MfccMelFilterbank7ComputeEPKfjPd
4006058c g     F .text	00000248 _ZN6tflite13PrepareSimpleEP13TfLiteContextP10TfLiteNodePlPi
40007f7c g     F .text	00000008 _ZN6tflite10ParseRsqrtEPKNS_8OperatorEPNS_13ErrorReporterEPNS_20BuiltinDataAllocatorEPPv
40011184 g     F .text	000000a4 _ZN6tflite26SingleArenaBufferAllocator25DeallocateResizableBufferEPh
400837f8 g     F .text	00000314 _ZN6tflite21AllocationInfoBuilder32MarkSubgraphLifetimesIfNecessaryEPKNS_8OperatorEPNS_8internal20ScratchBufferRequestEPNS_19ScratchBufferHandleEPNS_19SubgraphAllocationsE
4008b098 g     F .text	00000024 __umoddi3
40049530  w    F .text	00000010 _ZN6tflite25MicroContextGetEvalTensorEPK13TfLiteContexti
40017740 g     F .text	000005bc _ZN6tflite3ops5micro17audio_spectrogram4InitEP13TfLiteContextPKcj
40008778 g     F .text	00000160 _ZN6tflite17ParseStridedSliceEPKNS_8OperatorEPNS_13ErrorReporterEPNS_20BuiltinDataAllocatorEPPv
4000705c g     F .text	00000008 _ZN6tflite13ParseFloorDivEPKNS_8OperatorEPNS_13ErrorReporterEPNS_20BuiltinDataAllocatorEPPv
40007508 g     F .text	000000cc _ZN6tflite14ParseLeakyReluEPKNS_8OperatorEPNS_13ErrorReporterEPNS_20BuiltinDataAllocatorEPPv
40011ba4 g     F .text	00000044 _ZN6tflite14Register_RELU6Ev
4000c3c8 g     F .text	00000004 _ZN6tflite12tensor_utils8CwiseAddEPKsS2_iiPs
40082568 g     F .text	00000010 _ZN6tflite19GreedyMemoryPlannerC2Ev
40093c9c g     F .text	0000017c __kernel_sinf
4005244c  w    F .text	00000224 _ZN6tflite15NDOpsHelperImplILi5ELi1EZNS_13reference_ops27MaximumMinimumBroadcastSlowIfPFfffELi5EEEvRKNS_12RuntimeShapeEPKT_S7_SA_S7_PS8_T0_EUlPiE_EENSt9enable_ifIXneT0_miT_Li1EEvE4typeERKNS_11NdArrayDescIXT_EEERKT1_SD_
4007d228 g     F .text	00000044 _ZN6tflite23Register_TRANSPOSE_CONVEv
4005c6fc g     F .text	00000420 _ZN6tflite19MaxPoolingEvalFloatEP13TfLiteContextP10TfLiteNodeP16TfLitePoolParamsPKNS_13OpDataPoolingEPK16TfLiteEvalTensorPS9_
40087e84  w    F .text	00000010 _ZN6tflite14MockMicroGraphD0Ev
4007a310  w    F .text	00000174 _ZN6tflite13reference_ops18transpose_internal13TransposeImplIlEEviiPKlPKT_PKiPS5_S9_S4_
40319848 g     O .rodata	00000020 _ZN6tflite19kConvBiasQuantized8E
4008b090 g     F .text	00000008 __udivdi3
400008b8 g     F .text	0000001c readchar
40016a18  w    F .text	0000000c _ZN11flexbuffers10KeyCompareIyEEiPKvS2_
4005bc90 g     F .text	00000044 _ZN6tflite24Register_AVERAGE_POOL_2DEv
400854d4 g     F .text	00000004 _ZN6tflite12MicroContextD0Ev
4008b1e4 g     F .text	00000018 abort
4008ad98 g     F .text	00000074 __floatunsidf
400118c0 g     F .text	00000004 _ZN6tflite33FlatBufferVectorToTfLiteTypeArrayEPKN11flatbuffers6VectorIlEE
40011b60 g     F .text	00000044 _ZN6tflite13Register_RELUEv
40007054 g     F .text	00000008 _ZN6tflite10ParseFloorEPKNS_8OperatorEPNS_13ErrorReporterEPNS_20BuiltinDataAllocatorEPPv
40009ef4 g     F .text	00000060 _ZN6tflite12tensor_utils20ApplySignbitToVectorEPKfiPf
40005a14 g     F .text	00000100 murmurhash3_32
40007f74 g     F .text	00000008 _ZN6tflite10ParseRoundEPKNS_8OperatorEPNS_13ErrorReporterEPNS_20BuiltinDataAllocatorEPPv
40084ff4 g     F .text	00000170 _ZN6tflite14MicroAllocator20StartModelAllocationEPKNS_5ModelE
40083df8 g     F .text	00000010 _ZN6tflite14MicroAllocator20ResetTempAllocationsEv
4000a194 g     F .text	0000018c _ZN6tflite24PreprocessSoftmaxScalingEddiPlPi
400116a0 g     F .text	00000084 _ZN6tflite16FakeMicroContextC2EP12TfLiteTensorPNS_26SingleArenaBufferAllocatorEPNS_10MicroGraphE
40031994  w    F .text	00000254 _ZN6tflite7testing19ValidateConvGoldensIaEE12TfLiteStatusP12TfLiteTensoriPKT_iP16TfLiteConvParams18TfLiteRegistrationPS5_f
4031c9a4  w    O .rodata	00000014 _ZTVN6tflite18MicroErrorReporterE
400452c4 g     F .text	00000148 _ZN6tflite3ops5micro5floor4EvalEP13TfLiteContextP10TfLiteNode
40034150 g     F .text	00000040 _ZN6tflite15Register_CUMSUMEv
400884b4 g     F .text	00000178 _ZN6tflite7testing40CreateSymmetricPerChannelQuantizedTensorEPKfPaP14TfLiteIntArrayPfPiP24TfLiteAffineQuantizationib10TfLiteType
4006c1ec  w    F .text	000001fc _ZN6tflite3ops5micro5split9SplitImplIlEE12TfLiteStatusP13TfLiteContextP10TfLiteNodePK16TfLiteEvalTensori
400846d4 g     F .text	0000044c _ZN6tflite8internal36InitializeTfLiteTensorFromFlatbufferEPNS_26IPersistentBufferAllocatorEPNS_29INonPersistentBufferAllocatorEbRKNS_6TensorEPKN11flatbuffers6VectorINS8_6OffsetINS_6BufferEEEEEP12TfLiteTensor
40016a3c g     F .text	0000036c _ZN6tflite3ops5micro17audio_spectrogram7PrepareEP13TfLiteContextP10TfLiteNode
4008b39c g     F .text	00000038 strtol
4005e0b8 g     F .text	000003ac _ZN6tflite24PrepareQuantizeReferenceEP13TfLiteContextP10TfLiteNode
400445b0 g     F .text	00000040 _ZN6tflite12Register_EXPEv
4008e920 g     F .text	000000b0 cosf
40005054 g     F .text	00000030 pdti8_menu
40091e54 g     F .text	00000024 strnlen
400557a8 g     F .text	00000044 _ZN6tflite12Register_MULEv
4031f044 g     O .bss	00000020 CFU_start_counts
4001184c g     F .text	00000074 _ZN6tflite20NumSubgraphOperatorsEPKNS_5ModelEi
400925ac g     F .text	00000a84 __kernel_rem_pio2
40088adc g     F .text	00000050 _Z22tflite_set_input_zerosv
40016664 g     F .text	0000003c _ZN6tflite16Register_ARG_MAXEv
4008862c g     F .text	0000003c _ZN6tflite17ConvertTensorTypeENS_10TensorTypeEP10TfLiteType
4051cd88 g       .bss	00000000 _ebss
40082dec  w    F .text	00000008 _ZN6tflite18MicroMemoryPlanner4InitEPhi
400579b8 g     F .text	000008f0 _ZN6tflite21EvalMulFloatReferenceEP13TfLiteContextP10TfLiteNodeP15TfLiteMulParamsPKNS_9OpDataMulEPK16TfLiteEvalTensorSB_PS9_
400091ac g     F .text	000001d4 _ZN6tflite8internal7MfccDct10InitializeEii
40078034 g     F .text	00000570 _ZN6tflite22EvalFloatSvdfReferenceEP13TfLiteContextP10TfLiteNodePK16TfLiteEvalTensorS6_S6_S6_PK16TfLiteSVDFParamsiPS4_SA_
4004ac84 g     F .text	000008b4 _ZN6tflite3ops5micro6l2norm4EvalEP13TfLiteContextP10TfLiteNode
4004a9e4 g     F .text	0000000c _ZN6tflite3ops5micro6l2norm4InitEP13TfLiteContextPKcj
4031d79c  w    O .rodata	00000004 _ZZN11flexbuffers3Map8EmptyMapEvE9empty_map
4000cfac  w    F .text	00000010 _ZNK6tflite10OpResolver12GetDelegatesEi
4006cfc8 g     F .text	00000180 _ZN6tflite3ops5micro7split_v4EvalEP13TfLiteContextP10TfLiteNode
40007320 g     F .text	00000008 _ZN6tflite13ParseGatherNdEPKNS_8OperatorEPNS_13ErrorReporterEPNS_20BuiltinDataAllocatorEPPv
400320c0 g     F .text	000000dc _ZN6tflite7testing27TestConvQuantizedPerChannelEPiPKfPafiS1_S3_S4_S1_S3_PlPfS1_S1_S3_S4_fiP16TfLiteConvParams18TfLiteRegistrationS4_10TfLiteType
40014dd4 g     F .text	000002c4 _ZN6tflite18CalculateOpDataAddEP13TfLiteContextP15TfLiteAddParamsPK12TfLiteTensorS6_PS4_PNS_9OpDataAddE
40084064 g     F .text	00000054 _ZN6tflite14MicroAllocator28AllocateScratchBufferHandlesEPPNS_19ScratchBufferHandleEj
4000003c g     F .text	00000010 init_runtime
4000703c g     F .text	00000008 _ZN6tflite8ParseExpEPKNS_8OperatorEPNS_13ErrorReporterEPNS_20BuiltinDataAllocatorEPPv
40011510 g     F .text	00000024 _ZN6tflite16FakeMicroContext24AllocateTempTfLiteTensorEi
40007064 g     F .text	00000008 _ZN6tflite13ParseFloorModEPKNS_8OperatorEPNS_13ErrorReporterEPNS_20BuiltinDataAllocatorEPPv
4000cfcc  w    F .text	00000010 _ZNK6tflite10OpResolver25GetOpaqueDelegateCreatorsEv
4008ae64 g     F .text	00000098 __fixdfsi
4004540c g     F .text	0000003c _ZN6tflite3ops5micro14Register_FLOOREv
40044164 g     F .text	0000000c _ZN6tflite16GetString_ETHOSUEv
47fffffc g       .bss	00000000 _fstack
40319764 g     O .rodata	00000009 _ZN6tflite18kConvFilter1x3x3x1E
4031e280 g     O .bss	00000001 __lock___libc_recursive_mutex
40093280 g     F .text	00000190 __kernel_cosf
4008ba08 g     F .text	000004e0 strtod
4000b628 g     F .text	0000004c _ZN6tflite12tensor_utils38PortableMatrixScalarMultiplyAccumulateEPKalllPl
40084f50 g     F .text	000000a4 _ZN6tflite14MicroAllocator6CreateEPhj
402b2100 g     O .rodata	0000fa00 label8_data
40082234 g     F .text	00000100 _ZN6tflite22BytesRequiredForTensorERKNS_6TensorEPjS3_
4006b9e0 g     F .text	000000d4 _ZN6tflite3ops5micro5split7PrepareEP13TfLiteContextP10TfLiteNode
4008821c g     F .text	00000218 _ZN6tflite7testing35CreatePerChannelQuantizedBiasTensorEPKfPxP14TfLiteIntArrayfPfS6_PiP24TfLiteAffineQuantizationib
40086e7c g     F .text	00000048 _ZN6tflite13MicroProfiler8EndEventEm
4031d770 g     O .rodata	00000004 _ZN6tflite24kActivationsOutputTensorE
40011730 g     F .text	000000a4 _ZN6tflite17FlexbufferWrapperC2EPKhj
4030cde4  w    O .rodata	0000005c _ZTVN6tflite26SingleArenaBufferAllocatorE
40083e18 g     F .text	00000018 _ZN6tflite14MicroAllocator38AllocatePersistentTfLiteTensorInternalEv
40035b68 g     F .text	000000c4 _ZN6tflite28DepthwiseConvParamsQuantizedERK25TfLiteDepthwiseConvParamsRKNS_10OpDataConvE
4000a6a0 g     F .text	00000080 _ZN6tflite11CheckedLog2EfPi
400785a4 g     F .text	000009b4 _ZN6tflite11PrepareSvdfEP13TfLiteContextP10TfLiteNode
40088e5c g     F .text	000000c8 uart_isr
4008712c g     F .text	000000c8 _ZN6tflite22MicroResourceVariables8AllocateEiP13TfLiteContextPK12TfLiteTensor
40073878  w    F .text	00000c58 _ZN6tflite13reference_ops21BroadcastQuantSubSlowIaLi5EEEvRKNS_16ArithmeticParamsERKNS_12RuntimeShapeEPKT_S7_SA_S7_PS8_
40089164 g     F .text	00000004 __gtsf2
4000cfbc  w    F .text	00000010 _ZNK6tflite10OpResolver19GetDelegateCreatorsEv
40011544 g     F .text	00000070 _ZN6tflite16FakeMicroContext13GetEvalTensorEi
40087af0 g     F .text	0000007c _ZN6tflite15EvalTensorBytesEPK16TfLiteEvalTensor
40082188 g     F .text	00000014 _ZN6tflite14AlignPointerUpEPhj
40086ec4 g     F .text	000000ac _ZNK6tflite13MicroProfiler6LogCsvEv
4008b0bc g     F .text	0000003c __lshrdi3
40062b3c g     F .text	00000138 _ZN6tflite3ops5micro7reshape7PrepareEP13TfLiteContextP10TfLiteNode
4031d7a8 g     O .rodata	00000004 _ZN6tflite27kCircularBufferOutputTensorE
40091d04 g     F .text	00000004 kill
40049f50 g     F .text	0000015c _ZN6tflite5micro30CopySubgraphOutputsToOpOutputsEP13TfLiteContextP10TfLiteNodePNS_10MicroGraphEi
40089168 g     F .text	00000094 __ledf2
400854d4 g     F .text	00000004 _ZN6tflite12MicroContextD1Ev
4006f414 g     F .text	00000040 _ZN6tflite16Register_SQUEEZEEv
40011f64 g     F .text	0000007c _ZN6tflite14Relu6QuantizedEaaRKNS_12RuntimeShapeEPKaS2_Pa
400744d0  w    F .text	00000d98 _ZN6tflite13reference_ops21BroadcastQuantSubSlowIsLi5EEEvRKNS_16ArithmeticParamsERKNS_12RuntimeShapeEPKT_S7_SA_S7_PS8_
40053368  w    F .text	00000464 _ZN6tflite13reference_ops27MaximumMinimumBroadcastSlowIlPFlllELi5EEEvRKNS_12RuntimeShapeEPKT_S6_S9_S6_PS7_T0_
4006bab4 g     F .text	00000040 _ZN6tflite3ops5micro14Register_SPLITEv
400913d0 g     F .text	00000054 .hidden __math_oflow
40086128 g     F .text	00000008 _ZN6tflite10MicroGraph22SetSubgraphAllocationsEPNS_19SubgraphAllocationsE
40043a84 g     F .text	00000040 _ZN6tflite3ops5micro12Register_COSEv
40012ad8 g     F .text	00002188 _ZN6tflite16EvalAddQuantizedEP13TfLiteContextP10TfLiteNodeP15TfLiteAddParamsPKNS_9OpDataAddEPK16TfLiteEvalTensorSB_PS9_
400854d8 g     F .text	00000010 _ZN6tflite12MicroContext24AllocatePersistentBufferEj
40009484 g     F .text	0000007c _ZN6tflite8internal4Mfcc10InitializeEid
400169cc g     F .text	00000040 _ZN6tflite24Register_ASSIGN_VARIABLEEv
4031d924 g     O .rodata	00000004 _ZN6tflite16kSubOutputTensorE
400038e8 g     F .text	00000488 cftbsub
4004954c g     F .text	00000130 _ZN6tflite5micro12KernelRunnerC1ERK18TfLiteRegistrationP12TfLiteTensoriP14TfLiteIntArrayS8_PvS8_
40091d0c g     F .text	00000004 __retarget_lock_release_recursive
4001a4d4 g     F .text	00000140 _ZN6tflite18CircularBufferEvalEP13TfLiteContextP10TfLiteNode
40010ddc g     F .text	00000004 _ZN6tflite26SingleArenaBufferAllocatorD1Ev
4007a484  w    F .text	0000016c _ZN6tflite13reference_ops18transpose_internal13TransposeImplIaEEviiPKlPKT_PKiPS5_S9_S4_
40085724 g     F .text	0000003c _ZN6tflite10MicroGraph12NumSubgraphsEv
40048d14 g     F .text	00000044 _ZN6tflite19Register_HARD_SWISHEv
40082578 g     F .text	00000378 _ZN6tflite19GreedyMemoryPlanner24CalculateOffsetsIfNeededEv
400075ec g     F .text	00000008 _ZN6tflite15ParseLogicalAndEPKNS_8OperatorEPNS_13ErrorReporterEPNS_20BuiltinDataAllocatorEPPv
40027854 g     F .text	00000044 _ZN6tflite3ops5micro14Register_EQUALEv
40091ae4 g     F .text	0000003c .hidden __math_uflowf
4004b5cc  w    F .text	00000368 _ZN6tflite17QuantizeLeakyReluIaEEvRKNS_15LeakyReluOpDataEPK16TfLiteEvalTensorPS4_
4006c3e8 g     F .text	00000174 _ZN6tflite3ops5micro5split4EvalEP13TfLiteContextP10TfLiteNode
4008ca3c g     F .text	00000014 __log2pow5
4004f55c g     F .text	000001ec _ZN6tflite13lstm_internal24CalculateLstmOutputFloatEiiiPKfS2_21TfLiteFusedActivationS2_S2_fPfS4_
4008af80 g     F .text	00000098 __clzsi2
4008d45c g     F .text	000000bc cos
40006148 g     F .text	0000000c do_proj_menu
4008900c g     F .text	00000044 uart_init
40007d7c g     F .text	000000fc _ZN6tflite19ParseResizeBilinearEPKNS_8OperatorEPNS_13ErrorReporterEPNS_20BuiltinDataAllocatorEPPv
40007340 g     F .text	000000f4 _ZN6tflite7ParseIfEPKNS_8OperatorEPNS_13ErrorReporterEPNS_20BuiltinDataAllocatorEPPv
40049850 g     F .text	00000028 _ZN6tflite5micro10RegisterOpEPFPvP13TfLiteContextPKcjEPF12TfLiteStatusS3_P10TfLiteNodeESC_PFvS3_S1_E
4031e200 g     O .bss	00000008 my_cycles
40082334 g     F .text	000000b4 _ZN6tflite26TfLiteEvalTensorByteLengthEPK16TfLiteEvalTensorPj
4031dc58 g     O .rodata	00000004 stdin
400818c4 g     F .text	00000044 _ZN6tflite19Register_VAR_HANDLEEv
40043b04 g     F .text	00000040 _ZN6tflite3ops5micro13Register_SQRTEv
400833b0 g     F .text	00000448 _ZN6tflite21AllocationInfoBuilder23MarkAllocationLifetimesEiPNS_8internal20ScratchBufferRequestEPNS_19ScratchBufferHandleEPNS_19SubgraphAllocationsE
4004bcb4 g     F .text	0000019c _ZN6tflite13LeakyReluEvalEP13TfLiteContextP10TfLiteNode
4004884c g     F .text	00000040 _ZN6tflite18Register_GATHER_NDEv
40082148 g     F .text	00000040 _ZN6tflite19Register_ZEROS_LIKEEv
4008ca68 g     F .text	00000060 __umul128
40089050 g     F .text	00000018 uart_sync
400068b4 g     F .text	00000008 _ZN6tflite9ParseCeilEPKNS_8OperatorEPNS_13ErrorReporterEPNS_20BuiltinDataAllocatorEPPv
40010dfc g     F .text	00000008 _ZNK6tflite26SingleArenaBufferAllocator23GetOverlayMemoryAddressEv
40000000 g       .text	00000000 _ftext
4031d800 g     O .rodata	00000004 _ZN6tflite25kDepthwiseConvInputTensorE
4031d790 g     O .rodata	00000004 _ZN6tflite16kAddInputTensor1E
400115ec  w    F .text	00000010 _ZN6tflite16FakeMicroContextD2Ev
40000000 g       .text	00000000 _start
40011be8 g     F .text	000001c0 _ZN6tflite13ReluQuantizedERKNS_10ReluOpDataERKNS_12RuntimeShapeES5_PKaPa
4000d040  w    F .text	00000050 _ZNK6tflite22MicroMutableOpResolverILj128EE15GetOpDataParserENS_15BuiltinOperatorE
4008e7d0 g     F .text	000000c0 sin
40093edc g     F .text	000001c8 .hidden __floatundidf
40007f8c g     F .text	00000114 _ZN6tflite10ParseShapeEPKNS_8OperatorEPNS_13ErrorReporterEPNS_20BuiltinDataAllocatorEPPv
400088d8 g     F .text	00000110 _ZN6tflite8ParseSubEPKNS_8OperatorEPNS_13ErrorReporterEPNS_20BuiltinDataAllocatorEPPv
40085b5c g     F .text	00000214 _ZN6tflite10MicroGraph14InvokeSubgraphEi
40009380 g     F .text	00000104 _ZNK6tflite8internal7MfccDct7ComputeEPKdjPf
4005f860 g     F .text	0000000c _ZN6tflite10InitReduceEP13TfLiteContextPKcj
400872b4 g     F .text	00000068 _ZN6tflite22MicroResourceVariables8ResetAllEv
40049500  w    F .text	00000010 _ZN6tflite39MicroContextRequestScratchBufferInArenaEP13TfLiteContextjPi
4000d03c  w    F .text	00000004 _ZN6tflite14AllOpsResolverD1Ev
4031d8b4 g     O .rodata	00000004 _ZN6tflite16kMulInput2TensorE
4004dfdc  w    F .text	00000328 _ZN8gemmlowp22exp_on_negative_valuesIlLi4EEENS_10FixedPointIT_Li0EEENS1_IS2_XT0_EEE
4008e1b8 g     F .text	00000618 __rem_pio2
40089cf0 g     F .text	000000bc __floatsisf
4008587c g     F .text	0000007c _ZN6tflite10MicroGraph18NumSubgraphOutputsEi
4031d7a0 g     O .rodata	00000004 _ZN6tflite12kTfLiteAbortE
400115fc g     F .text	000000a4 _ZN6tflite16FakeMicroContext27RequestScratchBufferInArenaEjPi
4000a5c4 g     F .text	000000dc _ZN6tflite20CalculateInputRadiusEiii
40087e6c g     F .text	00000008 _ZN6tflite14MockMicroGraph18NumSubgraphOutputsEi
4000960c g     F .text	000004f4 _ZN6tflite8internal17MfccMelFilterbank10InitializeEididd
400858f8 g     F .text	000000a0 _ZN6tflite10MicroGraph17GetSubgraphOutputEii
40003d70 g     F .text	000002cc rftfsub
40091cf0 g     F .text	00000008 getentropy
40093e7c g     F .text	00000060 .hidden __clrsbsi2
4002b290 g     F .text	0000039c _ZN6tflite19CalculateOpDataConvEP13TfLiteContextP10TfLiteNodeRK16TfLiteConvParamsiiiiii10TfLiteTypePNS_10OpDataConvE
400817a4 g     F .text	0000003c _ZN6tflite3ops5micro15Register_UNPACKEv
4008b89c g     F .text	00000040 strncmp
40010de0 g     F .text	0000001c _ZN6tflite26SingleArenaBufferAllocator14DeallocateTempEPh
400077e4 g     F .text	000000f4 _ZN6tflite9ParsePackEPKNS_8OperatorEPNS_13ErrorReporterEPNS_20BuiltinDataAllocatorEPPv
40018858  w    F .text	00000134 _ZN6tflite13reference_ops13BroadcastArgsIlEEvRKNS_12RuntimeShapeEPKT_S4_S7_S4_PS5_
40088b88 g     F .text	0000005c _Z22tflite_set_input_floatPKf
400278dc g     F .text	00000044 _ZN6tflite3ops5micro16Register_GREATEREv
400583d0 g     F .text	0000003c _ZN6tflite12Register_NEGEv
40091ef4 g     F .text	0000004c __pow5Factor
40083e34 g     F .text	00000100 _ZN6tflite14MicroAllocator28AllocateNodeAndRegistrationsEPKNS_5ModelEPNS_19SubgraphAllocationsE
40053144  w    F .text	00000224 _ZN6tflite15NDOpsHelperImplILi5ELi1EZNS_13reference_ops27MaximumMinimumBroadcastSlowIlPFlllELi5EEEvRKNS_12RuntimeShapeEPKT_S7_SA_S7_PS8_T0_EUlPiE_EENSt9enable_ifIXneT0_miT_Li1EEvE4typeERKNS_11NdArrayDescIXT_EEERKT1_SD_
4005e464 g     F .text	000012e4 _ZN6tflite21EvalQuantizeReferenceEP13TfLiteContextP10TfLiteNode
4008687c g     F .text	00000490 _ZN6tflite16MicroInterpreter15AllocateTensorsEv
40089158 g     F .text	00000004 __eqsf2
400498b4 g     F .text	0000003c _ZN6tflite5micro12GetEvalInputEPK13TfLiteContextPK10TfLiteNodei
40065088 g     F .text	00000040 _ZN6tflite3ops5micro14Register_ROUNDEv
40007b88 g     F .text	00000008 _ZN6tflite9ParseReluEPKNS_8OperatorEPNS_13ErrorReporterEPNS_20BuiltinDataAllocatorEPPv
400077d4 g     F .text	00000008 _ZN6tflite8ParseNegEPKNS_8OperatorEPNS_13ErrorReporterEPNS_20BuiltinDataAllocatorEPPv
40008b28 g     F .text	00000008 _ZN6tflite14ParseTransposeEPKNS_8OperatorEPNS_13ErrorReporterEPNS_20BuiltinDataAllocatorEPPv
400729c0 g     F .text	0000081c _ZN6tflite3ops5micro13strided_slice15CheckOutputSizeEP13TfLiteContextPNS2_19StridedSliceContextE
40010ddc g     F .text	00000004 _ZN6tflite26SingleArenaBufferAllocatorD2Ev
4000c3cc g     F .text	000000c0 _ZN6tflite12tensor_utils13CwiseClippingEPfif
40082444 g     F .text	00000004 _ZN6tflite19GreedyMemoryPlannerD0Ev
40008f78 g     F .text	0000019c _ZN6tflite25GetRegistrationFromOpCodeEPKNS_12OperatorCodeERKNS_10OpResolverEPNS_13ErrorReporterEPPK18TfLiteRegistration
4031d804 g     O .rodata	00000004 _ZN6tflite26kDepthwiseConvOutputTensorE
40049510  w    F .text	00000010 _ZN6tflite28MicroContextGetScratchBufferEP13TfLiteContexti
400117d4 g     F .text	00000038 _ZNK6tflite17FlexbufferWrapper14ElementAsInt32Ej
40009500 g     F .text	0000010c _ZNK6tflite8internal4Mfcc7ComputeEPKfjPf
4002b098 g     F .text	00000044 _ZN6tflite16Register_CONV_2DEv
40068904 g     F .text	00000040 _ZN6tflite14Register_SLICEEv
4008b85c g     F .text	00000010 __cxa_atexit
400823e8 g     F .text	0000005c _ZN6tflite19GreedyMemoryPlanner4InitEPhi
40007034 g     F .text	00000008 _ZN6tflite10ParseEqualEPKNS_8OperatorEPNS_13ErrorReporterEPNS_20BuiltinDataAllocatorEPPv
4004fa54 g     F .text	00000160 _ZN6tflite13lstm_internal21UpdateLstmCellIntegerEiiPslPKsS1_S3_bs
400557f8 g     F .text	000003e8 _ZN6tflite18CalculateOpDataMulEP13TfLiteContextP10TfLiteNodeP15TfLiteMulParamsPNS_9OpDataMulE
400075f4 g     F .text	00000008 _ZN6tflite15ParseLogicalNotEPKNS_8OperatorEPNS_13ErrorReporterEPNS_20BuiltinDataAllocatorEPPv
4004df70 g     F .text	0000000c _ZN6tflite9LogicalOrEbb
40005538 g     F .text	00000070 perf_reset_all_counters
4008b86c g     F .text	00000030 memcmp
40006448 g     F .text	00000114 _ZN6tflite11ParseArgMaxEPKNS_8OperatorEPNS_13ErrorReporterEPNS_20BuiltinDataAllocatorEPPv
40076edc g     F .text	00000178 _ZN6tflite10SubPrepareEP13TfLiteContextP10TfLiteNode
4001107c g     F .text	00000004 _ZThn4_N6tflite26SingleArenaBufferAllocatorD0Ev
4006095c g     F .text	00000224 _ZN6tflite22PrepareMeanOrSumHelperEP13TfLiteContextP10TfLiteNodePNS_12OpDataReduceE
400821a8 g     F .text	00000014 _ZN6tflite11AlignSizeUpEjj
40064c20 g     F .text	00000308 _ZN6tflite3ops5micro5round7PrepareEP13TfLiteContextP10TfLiteNode
4031d850 g     O .rodata	00000004 _ZN6tflite21kHardSwishInputTensorE
4005ba08 g     F .text	00000044 _ZN6tflite14Register_PADV2Ev
4000c3b8 g     F .text	00000004 _ZN6tflite12tensor_utils30MatrixScalarMultiplyAccumulateEPKalllPl
4031d7b0 g     O .rodata	00000004 _ZN6tflite15kConvBiasTensorE
40007338 g     F .text	00000008 _ZN6tflite14ParseHardSwishEPKNS_8OperatorEPNS_13ErrorReporterEPNS_20BuiltinDataAllocatorEPPv
4008a950 g     F .text	000003b4 __divdf3
40006154 g     F .text	00000004 _Z14tflite_preloadPKhj
40032818  w    F .text	000005a4 _ZN6tflite7testing27TestConvQuantizedPerChannelIslEE12TfLiteStatusPiPKfPT_fiS3_S5_PaS3_S5_PT0_PfS3_S3_S5_S7_fiP16TfLiteConvParams18TfLiteRegistrationS7_10TfLiteType
400856e4 g     F .text	0000003c _ZN6tflite25MicroContextReportOpErrorEP13TfLiteContextPKcz
4008564c g     F .text	0000006c _ZN6tflite12MicroContext24AllocateTempOutputTensorEPK10TfLiteNodei
40082450 g     F .text	0000006c _ZN6tflite19GreedyMemoryPlanner9AddBufferEiii
40082d58 g     F .text	0000008c _ZN6tflite19GreedyMemoryPlanner18GetOffsetForBufferEiPi
40004338 g     F .text	000002a4 rdft
40007aa4 g     F .text	00000008 _ZN6tflite10ParsePreluEPKNS_8OperatorEPNS_13ErrorReporterEPNS_20BuiltinDataAllocatorEPPv
4005d808 g     F .text	00000044 _ZN6tflite14Register_PRELUEv
40034a00 g     F .text	00000040 _ZN6tflite23Register_DEPTH_TO_SPACEEv
4008a548 g     F .text	00000388 __muldf3
40043ac4 g     F .text	00000040 _ZN6tflite3ops5micro12Register_LOGEv
40064f28 g     F .text	00000160 _ZN6tflite3ops5micro5round4EvalEP13TfLiteContextP10TfLiteNode
4006ee70 g     F .text	00000044 _ZN6tflite27Register_SQUARED_DIFFERENCEEv
400078e8 g     F .text	000001bc _ZN6tflite9ParsePoolEPKNS_8OperatorEPNS_13ErrorReporterEPNS_20BuiltinDataAllocatorEPPv
40088720 g     F .text	0000004c _ZN6tflite25GetRegistrationFromOpCodeEPKNS_12OperatorCodeERKNS_10OpResolverEPPK18TfLiteRegistration
40010e04 g     F .text	00000020 _ZNK6tflite26SingleArenaBufferAllocator25GetNonPersistentUsedBytesEv
4005cb1c g     F .text	000002b4 _ZN6tflite23MaxPoolingEvalQuantizedEP13TfLiteContextP10TfLiteNodeP16TfLitePoolParamsPKNS_13OpDataPoolingEPK16TfLiteEvalTensorPS9_
4000761c g     F .text	00000008 _ZN6tflite12ParseMinimumEPKNS_8OperatorEPNS_13ErrorReporterEPNS_20BuiltinDataAllocatorEPPv
40007434 g     F .text	000000d4 _ZN6tflite20ParseL2NormalizationEPKNS_8OperatorEPNS_13ErrorReporterEPNS_20BuiltinDataAllocatorEPPv
4031d920 g     O .rodata	00000004 _ZN6tflite16kSubInputTensor2E
400914e0 g     F .text	00000108 scalbnf
4006a608 g     F .text	000001e4 _ZN6tflite14SoftmaxPrepareEP13TfLiteContextP10TfLiteNode
4004ec70 g     F .text	00000008 _ZN6tflite15LogisticPrepareEP13TfLiteContextP10TfLiteNode
40004e08 g     F .text	00000018 _Z15reset_my_cyclesv
40007b98 g     F .text	000001e4 _ZN6tflite12ParseReshapeEPKNS_8OperatorEPNS_13ErrorReporterEPNS_20BuiltinDataAllocatorEPPv
40009fc0 g     F .text	000000e8 _ZN6tflite18QuantizeMultiplierEdPlPi
4004954c g     F .text	00000130 _ZN6tflite5micro12KernelRunnerC2ERK18TfLiteRegistrationP12TfLiteTensoriP14TfLiteIntArrayS8_PvS8_
40009180 g     F .text	0000002c TfLiteTypeGetName
4008b858 g     F .text	00000004 strtoull
40089068 g     F .text	00000060 __cmpsf2
4006f454 g     F .text	0000000c _ZN6tflite3ops5micro13strided_slice4InitEP13TfLiteContextPKcj
4001a994 g     F .text	00000178 _ZN6tflite3ops5micro11comparisons7PrepareEP13TfLiteContextP10TfLiteNode
4000760c g     F .text	00000008 _ZN6tflite15ParseLogSoftmaxEPKNS_8OperatorEPNS_13ErrorReporterEPNS_20BuiltinDataAllocatorEPPv
40091d08 g     F .text	00000004 __retarget_lock_acquire_recursive
4000b980 g     F .text	0000009c _ZN6tflite12tensor_utils16PortableCwiseAddEPKsS2_iiPs
40014d90 g     F .text	00000044 _ZN6tflite12Register_ADDEv
4000c4ec g     F .text	0000005c _ZN6tflite12tensor_utils13CwiseClippingEPaia
400498f0 g     F .text	00000018 _ZN6tflite5micro13GetEvalOutputEPK13TfLiteContextPK10TfLiteNodei
4008ce20 g     F .text	00000084 fminf
40087a94 g     F .text	00000028 _ZN6tflite19GetCurrentTimeTicksEv
4003b9b4 g     F .text	000002dc _ZN6tflite14DequantizeEvalEP13TfLiteContextP10TfLiteNode
40091c3c g     F .text	0000001c memset
4004df7c g     F .text	00000010 _ZN6tflite10LogicalAndEbb
4008cd9c g     F .text	00000084 fmaxf
400886ec g     F .text	00000034 _ZN6tflite21GetMicroErrorReporterEv
40049ac4 g     F .text	0000018c _ZN6tflite5micro23CopyOpInputsToOpOutputsEP13TfLiteContextP10TfLiteNode
40000870 g     F .text	0000003c main
4001111c g     F .text	00000068 _ZThn4_N6tflite26SingleArenaBufferAllocator24AllocatePersistentBufferEjj
40088d50 g       .text	00000000 trap_entry
400843d4 g     F .text	00000300 _ZN6tflite14MicroAllocator25AllocateTfLiteEvalTensorsEPKNS_5ModelEPNS_19SubgraphAllocationsE
40086d0c g     F .text	00000060 _ZN6tflite16MicroInterpreter6InvokeEv
400080a0 g     F .text	00000008 _ZN6tflite8ParseSinEPKNS_8OperatorEPNS_13ErrorReporterEPNS_20BuiltinDataAllocatorEPPv
40049878 g     F .text	0000003c _ZN6tflite5micro19GetMutableEvalInputEPK13TfLiteContextPK10TfLiteNodei
400854cc g     F .text	00000008 _ZN6tflite14MicroAllocator23GetBuiltinDataAllocatorEv
4008915c g     F .text	00000004 __ltsf2
40082444 g     F .text	00000004 _ZN6tflite19GreedyMemoryPlannerD2Ev
400075fc g     F .text	00000008 _ZN6tflite14ParseLogicalOrEPKNS_8OperatorEPNS_13ErrorReporterEPNS_20BuiltinDataAllocatorEPPv
40087e84  w    F .text	00000010 _ZN6tflite14MockMicroGraphD2Ev
4000824c g     F .text	000000c8 _ZN6tflite10ParseSplitEPKNS_8OperatorEPNS_13ErrorReporterEPNS_20BuiltinDataAllocatorEPPv
4003dd60  w    F .text	000003d4 _ZNK11flexbuffers9Reference8AsDoubleEv
40082df4 g     F .text	0000019c _ZN6tflite21AllocationInfoBuilder20CreateAllocationInfoEi
40055bec g     F .text	00001dcc _ZN6tflite25EvalMulQuantizedReferenceEP13TfLiteContextP10TfLiteNodePKNS_9OpDataMulEPK16TfLiteEvalTensorS9_PS7_
4006b9a0 g     F .text	00000040 _ZN6tflite23Register_SPACE_TO_DEPTHEv
4006674c  w    F .text	00000868 _ZN6tflite13reference_ops21BroadcastSelect5DSlowIbsEEvRKNS_12RuntimeShapeEPKT_S4_PKT0_S4_SA_S4_PS8_
40084b20 g     F .text	000000c0 _ZN6tflite14MicroAllocator34PopulateTfLiteTensorFromFlatbufferEPKNS_5ModelEP12TfLiteTensoriib
40094180 g     F .text	00000184 .hidden __truncdfsf2
4008876c g     F .text	00000068 _ZN6tflite14GetBuiltinCodeEPKNS_12OperatorCodeE
4008b92c g     F .text	0000000c getchar
4006c658 g     F .text	00000040 _ZN6tflite3ops5micro16Register_SPLIT_VEv
4004978c g     F .text	000000c4 _ZN6tflite5micro12KernelRunner6InvokeEv
40273900 g     O .rodata	0000fa00 label0_data
40010e24 g     F .text	00000010 _ZNK6tflite26SingleArenaBufferAllocator22GetPersistentUsedBytesEv
40062f28 g     F .text	00000040 _ZN6tflite24Register_RESIZE_BILINEAREv
40051318 g     F .text	00000fc4 _ZN6tflite21EvalInteger8x8_16LstmEPK16TfLiteEvalTensorS2_S2_S2_S2_S2_S2_S2_S2_S2_S2_S2_S2_S2_S2_S2_S2_S2_S2_S2_S2_S2_PK16TfLiteLSTMParamsbbPKNS_20IntegerLstmParameterElPS0_S9_S9_PsSA_SA_SA_PaPl
40084be0 g     F .text	000001a8 _ZN6tflite14MicroAllocator24AllocateTempTfLiteTensorEPKNS_5ModelEPKNS_19SubgraphAllocationsEii
40082de4  w    F .text	00000008 _ZN6tflite18MicroMemoryPlanner9AddBufferEiiii
400824bc g     F .text	000000ac _ZN6tflite19GreedyMemoryPlanner9AddBufferEiiii
4000d464 g     F .text	00003978 _ZN6tflite14AllOpsResolverC1Ev
4000c9f4 g     F .text	00000568 _ZN6tflite37PopulateConvolutionQuantizationParamsEP13TfLiteContextPK12TfLiteTensorS4_S4_PS2_RK21TfLiteFusedActivationPlPiS9_S9_S9_S9_i
4008d518 g     F .text	0000049c exp
4008b8dc g     F .text	00000050 putc
4031d934 g     O .rodata	00000004 _ZN6tflite16kSvdfInputTensorE
40052410 g     F .text	0000003c _ZN6tflite3ops5micro16Register_MINIMUMEv
4000a320 g     F .text	000002a4 _ZN6tflite30PreprocessLogSoftmaxScalingExpEddiPlPiS0_S1_
4008953c g     F .text	00000214 __mulsf3
40061ab0 g     F .text	00000898 _ZN6tflite13EvalMaxHelperEP13TfLiteContextP10TfLiteNodePNS_12OpDataReduceE
40069a8c g     F .text	00000b70 _ZN6tflite22CalculateSoftmaxParamsEP13TfLiteContextPK12TfLiteTensorPS2_PK19TfLiteSoftmaxParamsPNS_13SoftmaxParamsE
402a2700 g     O .rodata	0000fa00 label6_data
4008e920 g     F .text	000000b0 _cosf
40091c58 g     F .text	00000020 strcmp
40083f34 g     F .text	00000130 _ZN6tflite14MicroAllocator17AllocateVariablesEPKNS_8SubGraphEP16TfLiteEvalTensor
40058a1c g     F .text	0000003c _ZN6tflite3ops5micro13Register_PACKEv
40008b20 g     F .text	00000008 _ZN6tflite9ParseTanhEPKNS_8OperatorEPNS_13ErrorReporterEPNS_20BuiltinDataAllocatorEPPv
40016f78  w    F .text	000003f0 _ZNK11flexbuffers9Reference7AsInt64Ev
40085534 g     F .text	0000002c _ZN6tflite12MicroContext13GetEvalTensorEi
40083d54 g     F .text	00000004 _ZN6tflite14MicroAllocatorD2Ev
400061b0 g     F .text	00000178 _ZN6tflite17ConvertTensorTypeENS_10TensorTypeEP10TfLiteTypePNS_13ErrorReporterE
40088668 g     F .text	0000005c _ZN6tflite24CallBuiltinParseFunctionEPF12TfLiteStatusPKNS_8OperatorEPNS_13ErrorReporterEPNS_20BuiltinDataAllocatorEPPvES3_S7_S9_
40052ce4  w    F .text	00000460 _ZN6tflite13reference_ops27MaximumMinimumBroadcastSlowIaPFaaaELi5EEEvRKNS_12RuntimeShapeEPKT_S6_S9_S6_PS7_T0_
4000cfe4  w    F .text	00000058 _ZNK6tflite22MicroMutableOpResolverILj128EE6FindOpENS_15BuiltinOperatorE
400077dc g     F .text	00000008 _ZN6tflite13ParseNotEqualEPKNS_8OperatorEPNS_13ErrorReporterEPNS_20BuiltinDataAllocatorEPPv
40088c0c g     F .text	00000028 _Z23tflite_get_output_floatv
4005bd18 g     F .text	00000110 _ZN6tflite22CalculateOpDataPoolingEPK13TfLiteContextPK16TfLitePoolParamsPK12TfLiteTensorS8_PNS_13OpDataPoolingE
40319770 g     O .rodata	000000d8 _ZN6tflite18kConvFilter8x3x3x3E
4031e231 g     O .bss	00000001 _ZN10micro_test16is_test_completeE
40085a90 g     F .text	000000cc _ZN6tflite10MicroGraph13FreeSubgraphsEv
4004992c g     F .text	00000060 _ZN6tflite5micro14GetTensorShapeEPK16TfLiteEvalTensor
4031d7fc g     O .rodata	00000004 _ZN6tflite24kDepthwiseConvBiasTensorE
40015098 g     F .text	00000168 _ZN6tflite10AddPrepareEP13TfLiteContextP10TfLiteNode
400892d4 g     F .text	00000004 __nedf2
4004fbb4 g     F .text	00000338 _ZN6tflite13lstm_internal32CalculateLstmOutputInteger8x8_16EiiiPslPKslllPKallPKllaPaS1_S8_Pl
40089f44 g     F .text	000000a0 __fixunsdfdi
40045284 g     F .text	00000040 _ZN6tflite13Register_FILLEv
40086d6c g     F .text	0000003c _Z3LogPKcPv
40008760 g     F .text	00000008 _ZN6tflite9ParseSqrtEPKNS_8OperatorEPNS_13ErrorReporterEPNS_20BuiltinDataAllocatorEPPv
40088434 g     F .text	00000080 _ZN6tflite7testing28PackInt4ValuesDenselyInPlaceEPhi
4004b57c g     F .text	0000000c _ZN6tflite13LeakyReluInitEP13TfLiteContextPKcj
40028210  w    F .text	0000036c _ZN6tflite3ops5micro13concatenation15EvalUnquantizedIlEEvP13TfLiteContextP10TfLiteNode
4008d008 g     F .text	00000454 atan
40091e78 g     F .text	0000007c fgetc
4000d14c  w    F .text	00000078 _ZNK6tflite15MicroOpResolver6FindOpENS_15BuiltinOperatorEi
4031d550 g     O .rodata	00000100 .hidden __clz_tab
4004f748 g     F .text	0000030c _ZN6tflite13lstm_internal30CalculateLstmGateInteger8x8_16EPKaS2_PKlllS2_S2_S4_llPKsS6_llS6_S4_llliiii21TfLiteFusedActivationPsPl
4001a00c g     F .text	00000308 _ZN6tflite3ops5micro4ceil7PrepareEP13TfLiteContextP10TfLiteNode
4004da18 g     F .text	0000003c _ZN6tflite19Register_LOGICAL_OREv
4003bc90 g     F .text	00000044 _ZN6tflite19Register_DEQUANTIZEEv
40089ec4 g     F .text	00000080 __fixdfdi
40017368  w    F .text	000003d8 _ZNK11flexbuffers9Reference8AsUInt64Ev
4000004c g     F .text	000000b0 read_val
40005464 g     F .text	000000d4 perf_print_value
400855e0 g     F .text	0000006c _ZN6tflite12MicroContext23AllocateTempInputTensorEPK10TfLiteNodei
4002b96c g     F .text	00005a70 _Z9conv_testiPPc
400890c8 g     F .text	00000060 __gesf2
40006f54 g     F .text	000000d8 _ZN6tflite8ParseDivEPKNS_8OperatorEPNS_13ErrorReporterEPNS_20BuiltinDataAllocatorEPPv
4004415c g     F .text	00000008 _ZN6tflite15Register_ETHOSUEv
40087098 g     F .text	00000094 _ZN6tflite22MicroResourceVariables4ReadEiPK16TfLiteEvalTensor
4000c554 g     F .text	00000004 _ZN6tflite12tensor_utils23MeanStddevNormalizationEPKfPfii
4006b10c g     F .text	00000044 _ZN6tflite26Register_SPACE_TO_BATCH_NDEv
40007604 g     F .text	00000008 _ZN6tflite13ParseLogisticEPKNS_8OperatorEPNS_13ErrorReporterEPNS_20BuiltinDataAllocatorEPPv
40085720 g     F .text	00000004 _ZN6tflite10MicroGraphD2Ev
40043b88 g     F .text	00000040 _ZN6tflite3ops5micro15Register_SQUAREEv
40048058 g     F .text	00000040 _ZN6tflite15Register_GATHEREv
40007330 g     F .text	00000008 _ZN6tflite17ParseGreaterEqualEPKNS_8OperatorEPNS_13ErrorReporterEPNS_20BuiltinDataAllocatorEPPv
40082fdc g     F .text	00000158 _ZN6tflite21AllocationInfoBuilder16ValidateSubgraphEPKNS_8SubGraphEP16TfLiteEvalTensor
4000a858 g     F .text	00000274 _ZN6tflite12tensor_utils43PortableMatrixBatchVectorMultiplyAccumulateEPKaPKlS2_llllllPlPsPNS_17CpuBackendContextE
4031dc5c g     O .rodata	00000004 stderr
40008b30 g     F .text	00000164 _ZN6tflite18ParseTransposeConvEPKNS_8OperatorEPNS_13ErrorReporterEPNS_20BuiltinDataAllocatorEPPv
400922f0 g     F .text	00000018 __pow5bits
40087e48 g     F .text	0000001c _ZN6tflite14MockMicroGraph14InvokeSubgraphEi
40028c4c  w    F .text	0000036c _ZN6tflite3ops5micro13concatenation15EvalUnquantizedIsEEvP13TfLiteContextP10TfLiteNode
40012304 g     F .text	000007d4 _ZN6tflite7EvalAddEP13TfLiteContextP10TfLiteNodeP15TfLiteAddParamsPKNS_9OpDataAddEPK16TfLiteEvalTensorSB_PS9_
4006566c g     F .text	00000044 _ZN6tflite18Register_SELECT_V2Ev
40016a24  w    F .text	0000000c _ZN11flexbuffers10KeyCompareIhEEiPKvS2_
40090490 g     F .text	00000138 scalbn
4031c388  w    O .rodata	00000044 _ZTVN6tflite14MicroAllocatorE
4030f240 g     O .rodata	00002400 g_person_data
400196f0 g     F .text	00000044 _ZN6tflite18Register_CALL_ONCEEv
40005a08 g     F .text	0000000c perf_test_menu
40090288 g     F .text	000000b4 _sinf
400080b0 g     F .text	000000cc _ZN6tflite12ParseSoftmaxEPKNS_8OperatorEPNS_13ErrorReporterEPNS_20BuiltinDataAllocatorEPPv
40319748 g     O .rodata	00000019 _ZN6tflite17kConvInput1x5x5x1E
40008768 g     F .text	00000008 _ZN6tflite11ParseSquareEPKNS_8OperatorEPNS_13ErrorReporterEPNS_20BuiltinDataAllocatorEPPv
40049908 g     F .text	00000024 _ZN6tflite5micro14HaveSameShapesEPK16TfLiteEvalTensorS3_
400494ac g     F .text	00000044 _ZN6tflite11Register_IFEv
40009ccc g     F .text	000000a0 _ZN6tflite12tensor_utils17ApplyReluToVectorEPKfiPf
40082444 g     F .text	00000004 _ZN6tflite19GreedyMemoryPlannerD1Ev
40043bc8 g     F .text	00000040 _ZN6tflite3ops5micro20Register_LOGICAL_NOTEv
4031d7ac g     O .rodata	00000004 _ZN6tflite29kCircularBufferCyclesMaxIndexE
40045cb4 g     F .text	00000044 _ZN6tflite18Register_FLOOR_DIVEv
40086f70 g     F .text	00000128 _ZN6tflite22MicroResourceVariables19CreateIdIfNoneFoundEPKcS2_
40018818 g     F .text	00000040 _ZN6tflite23Register_BROADCAST_ARGSEv
4000c6f0 g     F .text	00000304 _ZN6tflite33CalculateActivationRangeQuantizedEP13TfLiteContext21TfLiteFusedActivationP12TfLiteTensorPlS5_
4008b8dc g     F .text	00000050 fputc
4008d45c g     F .text	000000bc _cos
40077294 g     F .text	000006fc _ZN6tflite22EvalInt16SvdfReferenceEP13TfLiteContextP10TfLiteNodePK16TfLiteEvalTensorS6_S6_S6_PK16TfLiteSVDFParamsPS4_SA_RKNS_10OpDataSvdfE
40081290 g     F .text	00000044 _ZN6tflite37Register_UNIDIRECTIONAL_SEQUENCE_LSTMEv
4001900c g     F .text	00000040 _ZN6tflite21Register_BROADCAST_TOEv
4004b934  w    F .text	00000380 _ZN6tflite17QuantizeLeakyReluIsEEvRKNS_15LeakyReluOpDataEPK16TfLiteEvalTensorPS4_
400886c4  w    F .text	00000004 _ZN6tflite18MicroErrorReporterD1Ev
40027964 g     F .text	00000044 _ZN6tflite3ops5micro13Register_LESSEv
40058a64 g     F .text	00000754 _ZN6tflite10PadPrepareEP13TfLiteContextP10TfLiteNode
4005078c g     F .text	00000b8c _ZN6tflite13EvalFloatLstmEPK16TfLiteEvalTensorS2_S2_S2_S2_S2_S2_S2_S2_S2_S2_S2_S2_S2_S2_S2_S2_S2_S2_S2_S2_S2_S2_S2_S2_S2_S2_PK16TfLiteLSTMParamsbbiPfPS0_S7_S7_
40090288 g     F .text	000000b4 sinf
4005f88c g     F .text	00000008 _ZN6tflite7EvalSumEP13TfLiteContextP10TfLiteNode
40049df4 g     F .text	0000015c _ZN6tflite5micro29CopyOpOutputsToSubgraphInputsEP13TfLiteContextP10TfLiteNodePNS_10MicroGraphEi
40007044 g     F .text	00000008 _ZN6tflite15ParseExpandDimsEPKNS_8OperatorEPNS_13ErrorReporterEPNS_20BuiltinDataAllocatorEPPv
40083d6c g     F .text	0000008c _ZN6tflite14MicroAllocator26DeallocateTempTfLiteTensorEP12TfLiteTensor
4004967c g     F .text	00000110 _ZN6tflite5micro12KernelRunner14InitAndPrepareEPKcj
4008e7d0 g     F .text	000000c0 _sin
40007ab4 g     F .text	00000008 _ZN6tflite17ParseReadVariableEPKNS_8OperatorEPNS_13ErrorReporterEPNS_20BuiltinDataAllocatorEPPv
400856b8 g     F .text	00000024 _ZN6tflite12MicroContextC1EPNS_14MicroAllocatorEPKNS_5ModelEPNS_10MicroGraphE
40010ef4 g     F .text	00000068 _ZN6tflite26SingleArenaBufferAllocator24AllocatePersistentBufferEjj
4000ad34 g     F .text	000008f4 _ZN6tflite12tensor_utils22PortableApplyLayerNormEPKsS2_PKlllliiPs
400374c8 g     F .text	000044e0 _Z19depthwise_conv_testiPPc
40075268 g     F .text	00000fe0 _ZN6tflite16EvalSubQuantizedEP13TfLiteContextP10TfLiteNodeP15TfLiteSubParamsPKNS_9OpDataSubEPK16TfLiteEvalTensorSB_PS9_
40064be0 g     F .text	00000040 _ZN6tflite3ops5micro32Register_RESIZE_NEAREST_NEIGHBOREv
4000c54c g     F .text	00000004 _ZN6tflite12tensor_utils10Sub1VectorEPKfiPf
40006758 g     F .text	0000015c _ZN6tflite9ParseCastEPKNS_8OperatorEPNS_13ErrorReporterEPNS_20BuiltinDataAllocatorEPPv
400494f0  w    F .text	00000010 _ZN6tflite36MicroContextAllocatePersistentBufferEP13TfLiteContextj
40087fe0 g     F .text	0000023c _ZN6tflite7testing35CreatePerChannelQuantizedBiasTensorEPKfPlP14TfLiteIntArrayfPfS6_PiP24TfLiteAffineQuantizationib
4004b538 g     F .text	00000044 _ZN6tflite3ops5micro25Register_L2_NORMALIZATIONEv
4003219c  w    F .text	000005a4 _ZN6tflite7testing27TestConvQuantizedPerChannelIsxEE12TfLiteStatusPiPKfPT_fiS3_S5_PaS3_S5_PT0_PfS3_S3_S5_S7_fiP16TfLiteConvParams18TfLiteRegistrationS7_10TfLiteType
40063c9c g     F .text	00000264 _ZN6tflite3ops5micro23resize_nearest_neighbor7PrepareEP13TfLiteContextP10TfLiteNode
40043a00 g     F .text	00000044 _ZN6tflite3ops5micro12Register_ABSEv
4000d03c  w    F .text	00000004 _ZN6tflite14AllOpsResolverD2Ev
400853b0 g     F .text	000000d0 _ZN6tflite14MicroAllocator28FinishPrepareNodeAllocationsEi
400650f0 g     F .text	00000190 _ZN6tflite19CheckBroadcastShapeEP13TfLiteContextPK12TfLiteTensorS4_S4_PK14TfLiteIntArray
4008e890 g     F .text	00000090 ceilf
4031c3e4  w    O .rodata	00000034 _ZTVN6tflite12MicroContextE
4005472c  w    F .text	00000170 _ZN6tflite3ops5micro4mfcc4EvalILNS2_10KernelTypeE0EEE12TfLiteStatusP13TfLiteContextP10TfLiteNode
4005be28 g     F .text	000001dc _ZN6tflite14PoolingPrepareEP13TfLiteContextP10TfLiteNode
40052ad4  w    F .text	00000210 _ZN6tflite15NDOpsHelperImplILi5ELi1EZNS_13reference_ops27MaximumMinimumBroadcastSlowIaPFaaaELi5EEEvRKNS_12RuntimeShapeEPKT_S7_SA_S7_PS8_T0_EUlPiE_EENSt9enable_ifIXneT0_miT_Li1EEvE4typeERKNS_11NdArrayDescIXT_EEERKT1_SD_
4008b018 g     F .text	00000078 __ctzsi2
4031e228 g     O .bss	00000004 _ZN10micro_test12tests_failedE
4004c474 g     F .text	00000040 _ZN6tflite20Register_LOG_SOFTMAXEv
40032740 g     F .text	000000d8 _ZN6tflite7testing27TestConvQuantizedPerChannelEPiPKfPsfiS1_S3_PaS1_S3_PxPfS1_S1_S3_S4_fiP16TfLiteConvParams18TfLiteRegistrationS4_
40048d58 g     F .text	00000294 _ZN6tflite16HardSwishPrepareEP13TfLiteContextP10TfLiteNode
40085574 g     F .text	0000006c _ZN6tflite12MicroContext30AllocateTempIntermediateTensorEPK10TfLiteNodei
4031e200 g       .data	00000000 _edata
4005b9c4 g     F .text	00000044 _ZN6tflite12Register_PADEv
400852c0 g     F .text	000000f0 _ZN6tflite14MicroAllocator27RequestScratchBufferInArenaEjiPi
400089e8 g     F .text	00000138 _ZN6tflite9ParseSvdfEPKNS_8OperatorEPNS_13ErrorReporterEPNS_20BuiltinDataAllocatorEPPv
4031d854 g     O .rodata	00000004 _ZN6tflite22kHardSwishOutputTensorE
40047590 g     F .text	00000044 _ZN6tflite24Register_FULLY_CONNECTEDEv
4000c3bc g     F .text	00000004 _ZN6tflite12tensor_utils14ApplyLayerNormEPKsS2_PKlllliiPs
40055be0 g     F .text	0000000c _ZN6tflite10MulPrepareEP13TfLiteContextP10TfLiteNode
4051cd88 g       .bss	00000000 _end
40006680 g     F .text	00000008 _ZN6tflite18ParseBroadcastArgsEPKNS_8OperatorEPNS_13ErrorReporterEPNS_20BuiltinDataAllocatorEPPv
40089128 g     F .text	00000030 __unordsf2
40004df8 g     F .text	00000010 _Z13get_my_cyclesv
40085998 g     F .text	000000f8 _ZN6tflite10MicroGraph13InitSubgraphsEv
4005cdd0 g     F .text	0000000c _ZN6tflite9PreluInitEP13TfLiteContextPKcj
40011534 g     F .text	00000010 _ZN6tflite16FakeMicroContext26DeallocateTempTfLiteTensorEP12TfLiteTensor
4031d8a0 g     O .rodata	00000004 _ZN6tflite20kLogisticInputTensorE
40043b44 g     F .text	00000044 _ZN6tflite3ops5micro14Register_RSQRTEv
40083d58 g     F .text	00000014 _ZN6tflite14MicroAllocator24AllocatePersistentBufferEj
40091b5c g     F .text	00000040 .hidden __math_divzerof
40322344 g     O .bss	00000078 mfcc_output
40006670 g     F .text	00000008 _ZN6tflite19ParseAssignVariableEPKNS_8OperatorEPNS_13ErrorReporterEPNS_20BuiltinDataAllocatorEPPv
40088f24 g     F .text	00000054 uart_read
4002b1d4 g     F .text	000000bc _ZN6tflite19ConvParamsQuantizedERK16TfLiteConvParamsRKNS_10OpDataConvE
40027e60 g     F .text	00000044 _ZN6tflite3ops5micro22Register_CONCATENATIONEv
4004a9a4 g     F .text	00000040 _ZN6tflite19Register_L2_POOL_2DEv
40044bd8 g     F .text	00000040 _ZN6tflite20Register_EXPAND_DIMSEv
4004da90 g     F .text	000004e0 _ZN6tflite11LogicalImplEP13TfLiteContextP10TfLiteNodePFbbbE
4000348c g     F .text	0000045c cftfsub
40283300 g     O .rodata	0000fa00 label11_data
400627bc g     F .text	000000b0 _ZN6tflite3ops5micro7reshape4EvalEP13TfLiteContextP10TfLiteNode
4008ca50 g     F .text	00000018 __ceil_log2pow5
4004a9f0 g     F .text	00000294 _ZN6tflite3ops5micro6l2norm7PrepareEP13TfLiteContextP10TfLiteNode
400537cc  w    F .text	00000230 _ZN6tflite15NDOpsHelperImplILi5ELi1EZNS_13reference_ops27MaximumMinimumBroadcastSlowIxPFxxxELi5EEEvRKNS_12RuntimeShapeEPKT_S7_SA_S7_PS8_T0_EUlPiE_EENSt9enable_ifIXneT0_miT_Li1EEvE4typeERKNS_11NdArrayDescIXT_EEERKT1_SD_
4001a314 g     F .text	000000ec _ZN6tflite3ops5micro4ceil4EvalEP13TfLiteContextP10TfLiteNode
4031d944 g     O .rodata	00000004 _ZN6tflite31kSvdfInputActivationStateTensorE
40007aac g     F .text	00000008 _ZN6tflite13ParseQuantizeEPKNS_8OperatorEPNS_13ErrorReporterEPNS_20BuiltinDataAllocatorEPPv
40089dac g     F .text	0000009c __floatunsisf
40087e64 g     F .text	00000008 _ZN6tflite14MockMicroGraph20ResetVariableTensorsEv
4008219c g     F .text	0000000c _ZN6tflite16AlignPointerDownEPhj
40081cf4 g     F .text	00000044 _ZN6tflite14Register_WHILEEv
40044118 g     F .text	00000044 _ZN6tflite12Register_ELUEv
400075d4 g     F .text	00000008 _ZN6tflite9ParseLessEPKNS_8OperatorEPNS_13ErrorReporterEPNS_20BuiltinDataAllocatorEPPv
400115ec  w    F .text	00000010 _ZN6tflite16FakeMicroContextD1Ev
4009137c g     F .text	00000054 .hidden __math_uflow
4031d948 g     O .rodata	00000004 _ZN6tflite13kConvZeroBiasE
40065f18  w    F .text	00000834 _ZN6tflite13reference_ops21BroadcastSelect5DSlowIbaEEvRKNS_12RuntimeShapeEPKT_S4_PKT0_S4_SA_S4_PS8_
40049540  w    F .text	0000000c _ZN6tflite30MicroContextGetExternalContextEP13TfLiteContext25TfLiteExternalContextType
4000c3c0 g     F .text	00000004 _ZN6tflite12tensor_utils8CwiseMulEPKsS2_iiiPs
40087e74 g     F .text	00000008 _ZN6tflite14MockMicroGraph16GetSubgraphInputEii
400475d4 g     F .text	00000044 _ZN6tflite29FullyConnectedParamsQuantizedERKNS_20OpDataFullyConnectedE
40088e58 g     F .text	00000004 readchar_nonblock
40062c74 g     F .text	00000040 _ZN6tflite3ops5micro16Register_RESHAPEEv
4001150c g     F .text	00000004 DebugLog
40009d6c g     F .text	000000bc _ZN6tflite12tensor_utils18ApplyRelu1ToVectorEPKfiPf
4003165c g     F .text	00000068 _ZN6tflite7testing10InvokeConvEP12TfLiteTensoriiP16TfLiteConvParams18TfLiteRegistrationPa
400288e0  w    F .text	0000036c _ZN6tflite3ops5micro13concatenation15EvalUnquantizedIxEEvP13TfLiteContextP10TfLiteNode
400315f4 g     F .text	00000068 _ZN6tflite7testing10InvokeConvEP12TfLiteTensoriiP16TfLiteConvParams18TfLiteRegistrationPf
40085d70 g     F .text	00000134 _ZN6tflite10MicroGraph16PrepareSubgraphsEv
40011080 g     F .text	00000010 _ZThn4_NK6tflite26SingleArenaBufferAllocator22GetPersistentUsedBytesEv
4031caa0 g     O .rodata	00000101 _ctype_
40090c44 g     F .text	00000638 log1p
4007a2d0 g     F .text	00000040 _ZN6tflite18Register_TRANSPOSEEv
40027898 g     F .text	00000044 _ZN6tflite3ops5micro18Register_NOT_EQUALEv
40319868 g     O .rodata	00000c00 _ZN6tflite19kConvInput1x32x32x3E
4031d8b8 g     O .rodata	00000004 _ZN6tflite16kMulOutputTensorE
40089288 g     F .text	00000044 __unorddf2
40014c60 g     F .text	00000130 _ZN6tflite7AddEvalEP13TfLiteContextP10TfLiteNode
4031d91c g     O .rodata	00000004 _ZN6tflite16kSubInputTensor1E
4031d768  w    O .rodata	00000001 _ZZN11flexbuffers6Vector11EmptyVectorEvE12empty_vector
40031c54  w    F .text	0000046c _ZN6tflite7testing27TestConvQuantizedPerChannelIalEE12TfLiteStatusPiPKfPT_fiS3_S5_PaS3_S5_PT0_PfS3_S3_S5_S7_fiP16TfLiteConvParams18TfLiteRegistrationS7_10TfLiteType
4005f874 g     F .text	00000008 _ZN6tflite16PrepareMeanOrSumEP13TfLiteContextP10TfLiteNode
40085760 g     F .text	0000007c _ZN6tflite10MicroGraph17NumSubgraphInputsEi
40091d00 g     F .text	00000004 _exit
40087fac g     F .text	00000004 _ZN6tflite7testing16IntArrayFromIntsEPi
40093410 g     F .text	0000088c __kernel_rem_pio2f
40087e74 g     F .text	00000008 _ZN6tflite14MockMicroGraph17GetSubgraphOutputEii
400557ec g     F .text	0000000c _ZN6tflite7MulInitEP13TfLiteContextPKcj
40009e28 g     F .text	000000cc _ZN6tflite12tensor_utils18ApplyRelu6ToVectorEPKfiPf
4008e9d0 g     F .text	0000032c expf
400316c4 g     F .text	000002d0 _ZN6tflite7testing13TestConvFloatEPiPKfS1_S3_S1_S3_S1_S3_P16TfLiteConvParams18TfLiteRegistrationPf
4031d83c g     O .rodata	00000004 _ZN6tflite26kFullyConnectedInputTensorE
400650c8 g     F .text	00000028 _ZN6tflite10SelectInitEP13TfLiteContextPKcj
40076ca8 g     F .text	00000234 _ZN6tflite18CalculateOpDataSubEP13TfLiteContextP15TfLiteSubParamsPK12TfLiteTensorS6_PS4_PNS_9OpDataSubE
4031e078 g     O .data	00000004 model_pdti8_len
400854e8 g     F .text	00000014 _ZN6tflite12MicroContext16GetScratchBufferEi
4003f434 g     F .text	00000080 _ZN6tflite30Register_DETECTION_POSTPROCESSEv
40055644 g     F .text	00000044 _ZN6tflite19Register_MIRROR_PADEv
400121b4 g     F .text	00000144 _ZN6tflite12Relu6PrepareEP13TfLiteContextP10TfLiteNode
4031d808 g     O .rodata	00000004 _ZN6tflite27kDepthwiseConvWeightsTensorE
40091b20 g     F .text	0000003c .hidden __math_oflowf
40091c78 g     F .text	0000001c strlen
40007624 g     F .text	000000d8 _ZN6tflite14ParseMirrorPadEPKNS_8OperatorEPNS_13ErrorReporterEPNS_20BuiltinDataAllocatorEPPv
40065280 g     F .text	000003ec _ZN6tflite13SelectPrepareEP13TfLiteContextP10TfLiteNode
4006286c g     F .text	000002d0 _ZN6tflite3ops5micro7reshape13ReshapeOutputEP13TfLiteContextP10TfLiteNode
4002b0dc g     F .text	000000f8 _ZN6tflite15ConvParamsFloatERK16TfLiteConvParamsRKNS_10OpDataConvE
4031f430 g     O .bss	00002710 _ZN6tflite5micro12KernelRunner20kKernelRunnerBuffer_E
4009210c g     F .text	000001e4 __double_computeInvPow5
400891fc g     F .text	0000008c __gedf2
400279ec g     F .text	0000000c _ZN6tflite3ops5micro13concatenation4InitEP13TfLiteContextPKcj
40017cfc g     F .text	0000000c _ZN6tflite3ops5micro26Register_AUDIO_SPECTROGRAMEv
40007614 g     F .text	00000008 _ZN6tflite12ParseMaximumEPKNS_8OperatorEPNS_13ErrorReporterEPNS_20BuiltinDataAllocatorEPPv
400078d8 g     F .text	00000008 _ZN6tflite8ParsePadEPKNS_8OperatorEPNS_13ErrorReporterEPNS_20BuiltinDataAllocatorEPPv
4000d390  w    F .text	000000d4 _ZNK6tflite15MicroOpResolver6FindOpEPKci
4000655c g     F .text	00000114 _ZN6tflite11ParseArgMinEPKNS_8OperatorEPNS_13ErrorReporterEPNS_20BuiltinDataAllocatorEPPv
4005f91c g     F .text	00000040 _ZN6tflite12Register_SUMEv
4000cf5c g     F .text	00000024 _ZN6tflite14HaveSameShapesEPK12TfLiteTensorS2_
400607d4 g     F .text	00000188 _ZN6tflite16PrepareMaxHelperEP13TfLiteContextP10TfLiteNodePNS_12OpDataReduceE
40083d54 g     F .text	00000004 _ZN6tflite14MicroAllocatorD1Ev
40027920 g     F .text	00000044 _ZN6tflite3ops5micro22Register_GREATER_EQUALEv
4006bf80  w    F .text	0000026c _ZN6tflite3ops5micro5split9SplitImplIsEE12TfLiteStatusP13TfLiteContextP10TfLiteNodePK16TfLiteEvalTensori
4000c3b4 g     F .text	00000004 _ZN6tflite12tensor_utils35MatrixBatchVectorMultiplyAccumulateEPKaPKlS2_llllllPlPaPNS_17CpuBackendContextE
4008b1fc g     F .text	00000010 abs
4008ecfc g     F .text	00000090 floorf
40091dac g     F .text	000000a8 _on_exit
4001a614 g     F .text	00000080 _ZN6tflite24Register_CIRCULAR_BUFFEREv
40027ea4  w    F .text	0000036c _ZN6tflite3ops5micro13concatenation15EvalUnquantizedIfEEvP13TfLiteContextP10TfLiteNode
4004998c g     F .text	00000020 _ZN6tflite5micro18RuntimePaddingTypeE13TfLitePadding
40066fb4 g     F .text	00000a94 _ZN6tflite10SelectEvalEP13TfLiteContextP10TfLiteNode
40011da8 g     F .text	000000d8 _ZN6tflite9ReluFloatERKNS_12RuntimeShapeEPKfS2_Pf
40085ea4 g     F .text	00000228 _ZN6tflite10MicroGraph20ResetVariableTensorsEv
400539fc  w    F .text	00000470 _ZN6tflite13reference_ops27MaximumMinimumBroadcastSlowIxPFxxxELi5EEEvRKNS_12RuntimeShapeEPKT_S6_S9_S6_PS7_T0_
400886c4  w    F .text	00000004 _ZN6tflite18MicroErrorReporterD0Ev
4000d090  w    F .text	000000bc _ZNK6tflite22MicroMutableOpResolverILj128EE6FindOpEPKc
40082448 g     F .text	00000008 _ZN6tflite19GreedyMemoryPlanner14GetBufferCountEv
4004f0f0 g     F .text	000002cc _ZN6tflite13lstm_internal22CalculateLstmGateFloatEPKfS2_S2_S2_S2_S2_S2_S2_S2_S2_iiiii21TfLiteFusedActivationPfbb
40093e18 g     F .text	00000064 .hidden __clzdi2
40094310 g       .rodata	00000000 _frodata
4008a4b0 g     F .text	00000018 __subdf3
40084d88 g     F .text	000001c8 _ZN6tflite14MicroAllocator30AllocatePersistentTfLiteTensorEPKNS_5ModelEPKNS_19SubgraphAllocationsEii
4000aacc g     F .text	00000268 _ZN6tflite12tensor_utils43PortableMatrixBatchVectorMultiplyAccumulateEPKaPKlS2_llllllPlPaPNS_17CpuBackendContextE
40011228 g     F .text	0000011c _ZN6tflite26SingleArenaBufferAllocator33ReserveNonPersistentOverlayMemoryEjj
40087e6c g     F .text	00000008 _ZN6tflite14MockMicroGraph17NumSubgraphInputsEi
40011478 g     F .text	00000094 _ZN6tflite26SingleArenaBufferAllocator6CreateEPhj
4005e074 g     F .text	00000044 _ZN6tflite17Register_QUANTIZEEv
40031be8 g     F .text	0000006c _ZN6tflite7testing19ValidateConvGoldensEP12TfLiteTensoriPKaiP16TfLiteConvParams18TfLiteRegistrationPaf
4031d8c0 g     O .rodata	00000004 _ZN6tflite20kPoolingOutputTensorE
4003f760  w    F .text	000006d8 _ZN8gemmlowp32one_over_one_plus_x_for_x_in_0_1IlEENS_10FixedPointIT_Li0EEES3_
4006c8a4  w    F .text	0000029c _ZN6tflite3ops5micro7split_v9SplitImplIaEE12TfLiteStatusP13TfLiteContextP10TfLiteNodePK16TfLiteEvalTensori
40292d00 g     O .rodata	0000fa00 label1_data
40008d88 g     F .text	000000f4 _ZN6tflite14ParseVarHandleEPKNS_8OperatorEPNS_13ErrorReporterEPNS_20BuiltinDataAllocatorEPPv
4031d8a4 g     O .rodata	00000004 _ZN6tflite21kLogisticOutputTensorE
400915e8 g     F .text	00000454 expm1f
400118c4 g     F .text	00000004 _ZN6tflite33FlatBufferVectorToTfLiteTypeArrayEPKN11flatbuffers6VectorIfEE
4006baf4  w    F .text	000001fc _ZN6tflite3ops5micro5split9SplitImplIfEE12TfLiteStatusP13TfLiteContextP10TfLiteNodePK16TfLiteEvalTensori
4031e200 g       .bss	00000000 _fbss
40049c50 g     F .text	000001a4 _ZN6tflite5micro28CopyOpInputsToSubgraphInputsEP13TfLiteContextP10TfLiteNodePNS_10MicroGraphEii
40006440 g     F .text	00000008 _ZN6tflite9ParseAddNEPKNS_8OperatorEPNS_13ErrorReporterEPNS_20BuiltinDataAllocatorEPPv
400821bc g     F .text	00000078 _ZN6tflite16TfLiteTypeSizeOfE10TfLiteTypePj
4030cbd8  w    O .rodata	00000034 _ZTVN6tflite14AllOpsResolverE
4008dad0 g     F .text	000000cc frexp
4000c48c g     F .text	00000060 _ZN6tflite12tensor_utils13CwiseClippingEPsis
400892dc g     F .text	00000254 __addsf3
40006690 g     F .text	000000c8 _ZN6tflite13ParseCallOnceEPKNS_8OperatorEPNS_13ErrorReporterEPNS_20BuiltinDataAllocatorEPPv
40032dbc g     F .text	000000d8 _ZN6tflite7testing27TestConvQuantizedPerChannelEPiPKfPsfiS1_S3_PaS1_S3_PlPfS1_S1_S3_S4_fiP16TfLiteConvParams18TfLiteRegistrationS4_
4002857c  w    F .text	00000364 _ZN6tflite3ops5micro13concatenation15EvalUnquantizedIaEEvP13TfLiteContextP10TfLiteNode
400279f8 g     F .text	00000468 _ZN6tflite3ops5micro13concatenation7PrepareEP13TfLiteContextP10TfLiteNode
40054fa0 g     F .text	0000000c _ZN6tflite3ops5micro13Register_MFCCEv
4031d94c g     O .rodata	00000004 _ZN6tflite39kConvGoldenOutput4x4InputPaddingSame2x2E
4008bfdc g     F .text	00000724 vfprintf
400166a0 g     F .text	0000003c _ZN6tflite16Register_ARG_MINEv
40091d10 g     F .text	0000009c raise
4001898c  w    F .text	00000150 _ZN6tflite13reference_ops13BroadcastArgsIxEEvRKNS_12RuntimeShapeEPKT_S4_S7_S4_PS5_
4000a0a8 g     F .text	000000ec _ZN6tflite35QuantizeMultiplierSmallerThanOneExpEdPlPi
4000c088  w    F .text	000002a0 _ZN6tflite8internal11Spectrogram34ComputeSquaredMagnitudeSpectrogramIffEEbPKT_PT0_
4031dd30 g       .rodata	00000000 _erodata
400840b8 g     F .text	0000031c _ZN6tflite14MicroAllocator22CommitStaticMemoryPlanEPKNS_5ModelEPNS_19SubgraphAllocationsEPNS_19ScratchBufferHandleE
400115b4 g     F .text	00000014 _ZN6tflite16FakeMicroContext24AllocatePersistentBufferEj
4000b71c g     F .text	00000264 _ZN6tflite12tensor_utils16PortableCwiseMulEPKsS2_lllllPa
4003bcd4 g     F .text	00000208 _ZN6tflite17DequantizePrepareEP13TfLiteContextP10TfLiteNode
40087e94 g     F .text	00000114 _ZN6tflite14MockMicroGraphC2EPNS_26SingleArenaBufferAllocatorE


